
a.out:     file format elf64-x86-64


Disassembly of section .init:

0000000000400d60 <_init>:
  400d60:	48 83 ec 08          	sub    $0x8,%rsp
  400d64:	48 8b 05 8d 32 20 00 	mov    0x20328d(%rip),%rax        # 603ff8 <_DYNAMIC+0x1f0>
  400d6b:	48 85 c0             	test   %rax,%rax
  400d6e:	74 05                	je     400d75 <_init+0x15>
  400d70:	e8 2b 00 00 00       	callq  400da0 <__gmon_start__@plt>
  400d75:	48 83 c4 08          	add    $0x8,%rsp
  400d79:	c3                   	retq   

Disassembly of section .plt:

0000000000400d80 <_ZNSsaSEPKc@plt-0x10>:
  400d80:	ff 35 82 32 20 00    	pushq  0x203282(%rip)        # 604008 <_GLOBAL_OFFSET_TABLE_+0x8>
  400d86:	ff 25 84 32 20 00    	jmpq   *0x203284(%rip)        # 604010 <_GLOBAL_OFFSET_TABLE_+0x10>
  400d8c:	0f 1f 40 00          	nopl   0x0(%rax)

0000000000400d90 <_ZNSsaSEPKc@plt>:
  400d90:	ff 25 82 32 20 00    	jmpq   *0x203282(%rip)        # 604018 <_GLOBAL_OFFSET_TABLE_+0x18>
  400d96:	68 00 00 00 00       	pushq  $0x0
  400d9b:	e9 e0 ff ff ff       	jmpq   400d80 <_init+0x20>

0000000000400da0 <__gmon_start__@plt>:
  400da0:	ff 25 7a 32 20 00    	jmpq   *0x20327a(%rip)        # 604020 <_GLOBAL_OFFSET_TABLE_+0x20>
  400da6:	68 01 00 00 00       	pushq  $0x1
  400dab:	e9 d0 ff ff ff       	jmpq   400d80 <_init+0x20>

0000000000400db0 <_ZdlPv@plt>:
  400db0:	ff 25 72 32 20 00    	jmpq   *0x203272(%rip)        # 604028 <_GLOBAL_OFFSET_TABLE_+0x28>
  400db6:	68 02 00 00 00       	pushq  $0x2
  400dbb:	e9 c0 ff ff ff       	jmpq   400d80 <_init+0x20>

0000000000400dc0 <_ZNKSs4sizeEv@plt>:
  400dc0:	ff 25 6a 32 20 00    	jmpq   *0x20326a(%rip)        # 604030 <_GLOBAL_OFFSET_TABLE_+0x30>
  400dc6:	68 03 00 00 00       	pushq  $0x3
  400dcb:	e9 b0 ff ff ff       	jmpq   400d80 <_init+0x20>

0000000000400dd0 <_ZNSt8ios_base4InitC1Ev@plt>:
  400dd0:	ff 25 62 32 20 00    	jmpq   *0x203262(%rip)        # 604038 <_GLOBAL_OFFSET_TABLE_+0x38>
  400dd6:	68 04 00 00 00       	pushq  $0x4
  400ddb:	e9 a0 ff ff ff       	jmpq   400d80 <_init+0x20>

0000000000400de0 <__libc_start_main@plt>:
  400de0:	ff 25 5a 32 20 00    	jmpq   *0x20325a(%rip)        # 604040 <_GLOBAL_OFFSET_TABLE_+0x40>
  400de6:	68 05 00 00 00       	pushq  $0x5
  400deb:	e9 90 ff ff ff       	jmpq   400d80 <_init+0x20>

0000000000400df0 <_ZSt18_Rb_tree_decrementPSt18_Rb_tree_node_base@plt>:
  400df0:	ff 25 52 32 20 00    	jmpq   *0x203252(%rip)        # 604048 <_GLOBAL_OFFSET_TABLE_+0x48>
  400df6:	68 06 00 00 00       	pushq  $0x6
  400dfb:	e9 80 ff ff ff       	jmpq   400d80 <_init+0x20>

0000000000400e00 <_ZNSsC1ERKSs@plt>:
  400e00:	ff 25 4a 32 20 00    	jmpq   *0x20324a(%rip)        # 604050 <_GLOBAL_OFFSET_TABLE_+0x50>
  400e06:	68 07 00 00 00       	pushq  $0x7
  400e0b:	e9 70 ff ff ff       	jmpq   400d80 <_init+0x20>

0000000000400e10 <__cxa_atexit@plt>:
  400e10:	ff 25 42 32 20 00    	jmpq   *0x203242(%rip)        # 604058 <_GLOBAL_OFFSET_TABLE_+0x58>
  400e16:	68 08 00 00 00       	pushq  $0x8
  400e1b:	e9 60 ff ff ff       	jmpq   400d80 <_init+0x20>

0000000000400e20 <_ZNSt8ios_base4InitD1Ev@plt>:
  400e20:	ff 25 3a 32 20 00    	jmpq   *0x20323a(%rip)        # 604060 <_GLOBAL_OFFSET_TABLE_+0x60>
  400e26:	68 09 00 00 00       	pushq  $0x9
  400e2b:	e9 50 ff ff ff       	jmpq   400d80 <_init+0x20>

0000000000400e30 <_ZStlsISt11char_traitsIcEERSt13basic_ostreamIcT_ES5_PKc@plt>:
  400e30:	ff 25 32 32 20 00    	jmpq   *0x203232(%rip)        # 604068 <_GLOBAL_OFFSET_TABLE_+0x68>
  400e36:	68 0a 00 00 00       	pushq  $0xa
  400e3b:	e9 40 ff ff ff       	jmpq   400d80 <_init+0x20>

0000000000400e40 <_ZNSsD1Ev@plt>:
  400e40:	ff 25 2a 32 20 00    	jmpq   *0x20322a(%rip)        # 604070 <_GLOBAL_OFFSET_TABLE_+0x70>
  400e46:	68 0b 00 00 00       	pushq  $0xb
  400e4b:	e9 30 ff ff ff       	jmpq   400d80 <_init+0x20>

0000000000400e50 <_ZNSs6appendEmc@plt>:
  400e50:	ff 25 22 32 20 00    	jmpq   *0x203222(%rip)        # 604078 <_GLOBAL_OFFSET_TABLE_+0x78>
  400e56:	68 0c 00 00 00       	pushq  $0xc
  400e5b:	e9 20 ff ff ff       	jmpq   400d80 <_init+0x20>

0000000000400e60 <_ZNSsC1EPKcRKSaIcE@plt>:
  400e60:	ff 25 1a 32 20 00    	jmpq   *0x20321a(%rip)        # 604080 <_GLOBAL_OFFSET_TABLE_+0x80>
  400e66:	68 0d 00 00 00       	pushq  $0xd
  400e6b:	e9 10 ff ff ff       	jmpq   400d80 <_init+0x20>

0000000000400e70 <_ZNSsixEm@plt>:
  400e70:	ff 25 12 32 20 00    	jmpq   *0x203212(%rip)        # 604088 <_GLOBAL_OFFSET_TABLE_+0x88>
  400e76:	68 0e 00 00 00       	pushq  $0xe
  400e7b:	e9 00 ff ff ff       	jmpq   400d80 <_init+0x20>

0000000000400e80 <getchar@plt>:
  400e80:	ff 25 0a 32 20 00    	jmpq   *0x20320a(%rip)        # 604090 <_GLOBAL_OFFSET_TABLE_+0x90>
  400e86:	68 0f 00 00 00       	pushq  $0xf
  400e8b:	e9 f0 fe ff ff       	jmpq   400d80 <_init+0x20>

0000000000400e90 <_ZSt29_Rb_tree_insert_and_rebalancebPSt18_Rb_tree_node_baseS0_RS_@plt>:
  400e90:	ff 25 02 32 20 00    	jmpq   *0x203202(%rip)        # 604098 <_GLOBAL_OFFSET_TABLE_+0x98>
  400e96:	68 10 00 00 00       	pushq  $0x10
  400e9b:	e9 e0 fe ff ff       	jmpq   400d80 <_init+0x20>

0000000000400ea0 <_ZStlsIcSt11char_traitsIcESaIcEERSt13basic_ostreamIT_T0_ES7_RKSbIS4_S5_T1_E@plt>:
  400ea0:	ff 25 fa 31 20 00    	jmpq   *0x2031fa(%rip)        # 6040a0 <_GLOBAL_OFFSET_TABLE_+0xa0>
  400ea6:	68 11 00 00 00       	pushq  $0x11
  400eab:	e9 d0 fe ff ff       	jmpq   400d80 <_init+0x20>

0000000000400eb0 <_ZNSaIcED1Ev@plt>:
  400eb0:	ff 25 f2 31 20 00    	jmpq   *0x2031f2(%rip)        # 6040a8 <_GLOBAL_OFFSET_TABLE_+0xa8>
  400eb6:	68 12 00 00 00       	pushq  $0x12
  400ebb:	e9 c0 fe ff ff       	jmpq   400d80 <_init+0x20>

0000000000400ec0 <_ZNSolsEPFRSoS_E@plt>:
  400ec0:	ff 25 ea 31 20 00    	jmpq   *0x2031ea(%rip)        # 6040b0 <_GLOBAL_OFFSET_TABLE_+0xb0>
  400ec6:	68 13 00 00 00       	pushq  $0x13
  400ecb:	e9 b0 fe ff ff       	jmpq   400d80 <_init+0x20>

0000000000400ed0 <freopen@plt>:
  400ed0:	ff 25 e2 31 20 00    	jmpq   *0x2031e2(%rip)        # 6040b8 <_GLOBAL_OFFSET_TABLE_+0xb8>
  400ed6:	68 14 00 00 00       	pushq  $0x14
  400edb:	e9 a0 fe ff ff       	jmpq   400d80 <_init+0x20>

0000000000400ee0 <_ZSt18_Rb_tree_incrementPSt18_Rb_tree_node_base@plt>:
  400ee0:	ff 25 da 31 20 00    	jmpq   *0x2031da(%rip)        # 6040c0 <_GLOBAL_OFFSET_TABLE_+0xc0>
  400ee6:	68 15 00 00 00       	pushq  $0x15
  400eeb:	e9 90 fe ff ff       	jmpq   400d80 <_init+0x20>

0000000000400ef0 <_ZSt17__throw_bad_allocv@plt>:
  400ef0:	ff 25 d2 31 20 00    	jmpq   *0x2031d2(%rip)        # 6040c8 <_GLOBAL_OFFSET_TABLE_+0xc8>
  400ef6:	68 16 00 00 00       	pushq  $0x16
  400efb:	e9 80 fe ff ff       	jmpq   400d80 <_init+0x20>

0000000000400f00 <_ZSt4endlIcSt11char_traitsIcEERSt13basic_ostreamIT_T0_ES6_@plt>:
  400f00:	ff 25 ca 31 20 00    	jmpq   *0x2031ca(%rip)        # 6040d0 <_GLOBAL_OFFSET_TABLE_+0xd0>
  400f06:	68 17 00 00 00       	pushq  $0x17
  400f0b:	e9 70 fe ff ff       	jmpq   400d80 <_init+0x20>

0000000000400f10 <_ZNSaIcEC1Ev@plt>:
  400f10:	ff 25 c2 31 20 00    	jmpq   *0x2031c2(%rip)        # 6040d8 <_GLOBAL_OFFSET_TABLE_+0xd8>
  400f16:	68 18 00 00 00       	pushq  $0x18
  400f1b:	e9 60 fe ff ff       	jmpq   400d80 <_init+0x20>

0000000000400f20 <__gxx_personality_v0@plt>:
  400f20:	ff 25 ba 31 20 00    	jmpq   *0x2031ba(%rip)        # 6040e0 <_GLOBAL_OFFSET_TABLE_+0xe0>
  400f26:	68 19 00 00 00       	pushq  $0x19
  400f2b:	e9 50 fe ff ff       	jmpq   400d80 <_init+0x20>

0000000000400f30 <_Znwm@plt>:
  400f30:	ff 25 b2 31 20 00    	jmpq   *0x2031b2(%rip)        # 6040e8 <_GLOBAL_OFFSET_TABLE_+0xe8>
  400f36:	68 1a 00 00 00       	pushq  $0x1a
  400f3b:	e9 40 fe ff ff       	jmpq   400d80 <_init+0x20>

0000000000400f40 <_Unwind_Resume@plt>:
  400f40:	ff 25 aa 31 20 00    	jmpq   *0x2031aa(%rip)        # 6040f0 <_GLOBAL_OFFSET_TABLE_+0xf0>
  400f46:	68 1b 00 00 00       	pushq  $0x1b
  400f4b:	e9 30 fe ff ff       	jmpq   400d80 <_init+0x20>

0000000000400f50 <_ZNSsaSERKSs@plt>:
  400f50:	ff 25 a2 31 20 00    	jmpq   *0x2031a2(%rip)        # 6040f8 <_GLOBAL_OFFSET_TABLE_+0xf8>
  400f56:	68 1c 00 00 00       	pushq  $0x1c
  400f5b:	e9 20 fe ff ff       	jmpq   400d80 <_init+0x20>

Disassembly of section .text:

0000000000400f60 <_start>:
  400f60:	31 ed                	xor    %ebp,%ebp
  400f62:	49 89 d1             	mov    %rdx,%r9
  400f65:	5e                   	pop    %rsi
  400f66:	48 89 e2             	mov    %rsp,%rdx
  400f69:	48 83 e4 f0          	and    $0xfffffffffffffff0,%rsp
  400f6d:	50                   	push   %rax
  400f6e:	54                   	push   %rsp
  400f6f:	49 c7 c0 80 29 40 00 	mov    $0x402980,%r8
  400f76:	48 c7 c1 10 29 40 00 	mov    $0x402910,%rcx
  400f7d:	48 c7 c7 ae 13 40 00 	mov    $0x4013ae,%rdi
  400f84:	e8 57 fe ff ff       	callq  400de0 <__libc_start_main@plt>
  400f89:	f4                   	hlt    
  400f8a:	66 0f 1f 44 00 00    	nopw   0x0(%rax,%rax,1)

0000000000400f90 <deregister_tm_clones>:
  400f90:	b8 17 41 60 00       	mov    $0x604117,%eax
  400f95:	55                   	push   %rbp
  400f96:	48 2d 10 41 60 00    	sub    $0x604110,%rax
  400f9c:	48 83 f8 0e          	cmp    $0xe,%rax
  400fa0:	48 89 e5             	mov    %rsp,%rbp
  400fa3:	77 02                	ja     400fa7 <deregister_tm_clones+0x17>
  400fa5:	5d                   	pop    %rbp
  400fa6:	c3                   	retq   
  400fa7:	b8 00 00 00 00       	mov    $0x0,%eax
  400fac:	48 85 c0             	test   %rax,%rax
  400faf:	74 f4                	je     400fa5 <deregister_tm_clones+0x15>
  400fb1:	5d                   	pop    %rbp
  400fb2:	bf 10 41 60 00       	mov    $0x604110,%edi
  400fb7:	ff e0                	jmpq   *%rax
  400fb9:	0f 1f 80 00 00 00 00 	nopl   0x0(%rax)

0000000000400fc0 <register_tm_clones>:
  400fc0:	b8 10 41 60 00       	mov    $0x604110,%eax
  400fc5:	55                   	push   %rbp
  400fc6:	48 2d 10 41 60 00    	sub    $0x604110,%rax
  400fcc:	48 c1 f8 03          	sar    $0x3,%rax
  400fd0:	48 89 e5             	mov    %rsp,%rbp
  400fd3:	48 89 c2             	mov    %rax,%rdx
  400fd6:	48 c1 ea 3f          	shr    $0x3f,%rdx
  400fda:	48 01 d0             	add    %rdx,%rax
  400fdd:	48 d1 f8             	sar    %rax
  400fe0:	75 02                	jne    400fe4 <register_tm_clones+0x24>
  400fe2:	5d                   	pop    %rbp
  400fe3:	c3                   	retq   
  400fe4:	ba 00 00 00 00       	mov    $0x0,%edx
  400fe9:	48 85 d2             	test   %rdx,%rdx
  400fec:	74 f4                	je     400fe2 <register_tm_clones+0x22>
  400fee:	5d                   	pop    %rbp
  400fef:	48 89 c6             	mov    %rax,%rsi
  400ff2:	bf 10 41 60 00       	mov    $0x604110,%edi
  400ff7:	ff e2                	jmpq   *%rdx
  400ff9:	0f 1f 80 00 00 00 00 	nopl   0x0(%rax)

0000000000401000 <__do_global_dtors_aux>:
  401000:	80 3d 49 32 20 00 00 	cmpb   $0x0,0x203249(%rip)        # 604250 <completed.6973>
  401007:	75 11                	jne    40101a <__do_global_dtors_aux+0x1a>
  401009:	55                   	push   %rbp
  40100a:	48 89 e5             	mov    %rsp,%rbp
  40100d:	e8 7e ff ff ff       	callq  400f90 <deregister_tm_clones>
  401012:	5d                   	pop    %rbp
  401013:	c6 05 36 32 20 00 01 	movb   $0x1,0x203236(%rip)        # 604250 <completed.6973>
  40101a:	f3 c3                	repz retq 
  40101c:	0f 1f 40 00          	nopl   0x0(%rax)

0000000000401020 <frame_dummy>:
  401020:	48 83 3d d8 2d 20 00 	cmpq   $0x0,0x202dd8(%rip)        # 603e00 <__JCR_END__>
  401027:	00 
  401028:	74 1e                	je     401048 <frame_dummy+0x28>
  40102a:	b8 00 00 00 00       	mov    $0x0,%eax
  40102f:	48 85 c0             	test   %rax,%rax
  401032:	74 14                	je     401048 <frame_dummy+0x28>
  401034:	55                   	push   %rbp
  401035:	bf 00 3e 60 00       	mov    $0x603e00,%edi
  40103a:	48 89 e5             	mov    %rsp,%rbp
  40103d:	ff d0                	callq  *%rax
  40103f:	5d                   	pop    %rbp
  401040:	e9 7b ff ff ff       	jmpq   400fc0 <register_tm_clones>
  401045:	0f 1f 00             	nopl   (%rax)
  401048:	e9 73 ff ff ff       	jmpq   400fc0 <register_tm_clones>

000000000040104d <_Z6preDFAv>:
  40104d:	55                   	push   %rbp
  40104e:	48 89 e5             	mov    %rsp,%rbp
  401051:	48 83 ec 20          	sub    $0x20,%rsp
  401055:	c6 45 eb 63          	movb   $0x63,-0x15(%rbp)
  401059:	c7 45 ec 00 00 00 00 	movl   $0x0,-0x14(%rbp)
  401060:	48 8d 55 eb          	lea    -0x15(%rbp),%rdx
  401064:	48 8d 4d ec          	lea    -0x14(%rbp),%rcx
  401068:	48 8d 45 f0          	lea    -0x10(%rbp),%rax
  40106c:	48 89 ce             	mov    %rcx,%rsi
  40106f:	48 89 c7             	mov    %rax,%rdi
  401072:	e8 4b 06 00 00       	callq  4016c2 <_ZNSt4pairIicEC1ERKiRKc>
  401077:	48 8d 45 f0          	lea    -0x10(%rbp),%rax
  40107b:	48 89 c6             	mov    %rax,%rsi
  40107e:	bf 60 42 60 00       	mov    $0x604260,%edi
  401083:	e8 66 06 00 00       	callq  4016ee <_ZNSt3mapISt4pairIicEiSt4lessIS1_ESaIS0_IKS1_iEEEixERS4_>
  401088:	c7 00 01 00 00 00    	movl   $0x1,(%rax)
  40108e:	c6 45 eb 68          	movb   $0x68,-0x15(%rbp)
  401092:	c7 45 ec 01 00 00 00 	movl   $0x1,-0x14(%rbp)
  401099:	48 8d 55 eb          	lea    -0x15(%rbp),%rdx
  40109d:	48 8d 4d ec          	lea    -0x14(%rbp),%rcx
  4010a1:	48 8d 45 f0          	lea    -0x10(%rbp),%rax
  4010a5:	48 89 ce             	mov    %rcx,%rsi
  4010a8:	48 89 c7             	mov    %rax,%rdi
  4010ab:	e8 12 06 00 00       	callq  4016c2 <_ZNSt4pairIicEC1ERKiRKc>
  4010b0:	48 8d 45 f0          	lea    -0x10(%rbp),%rax
  4010b4:	48 89 c6             	mov    %rax,%rsi
  4010b7:	bf 60 42 60 00       	mov    $0x604260,%edi
  4010bc:	e8 2d 06 00 00       	callq  4016ee <_ZNSt3mapISt4pairIicEiSt4lessIS1_ESaIS0_IKS1_iEEEixERS4_>
  4010c1:	c7 00 02 00 00 00    	movl   $0x2,(%rax)
  4010c7:	c6 45 eb 61          	movb   $0x61,-0x15(%rbp)
  4010cb:	c7 45 ec 01 00 00 00 	movl   $0x1,-0x14(%rbp)
  4010d2:	48 8d 55 eb          	lea    -0x15(%rbp),%rdx
  4010d6:	48 8d 4d ec          	lea    -0x14(%rbp),%rcx
  4010da:	48 8d 45 f0          	lea    -0x10(%rbp),%rax
  4010de:	48 89 ce             	mov    %rcx,%rsi
  4010e1:	48 89 c7             	mov    %rax,%rdi
  4010e4:	e8 d9 05 00 00       	callq  4016c2 <_ZNSt4pairIicEC1ERKiRKc>
  4010e9:	48 8d 45 f0          	lea    -0x10(%rbp),%rax
  4010ed:	48 89 c6             	mov    %rax,%rsi
  4010f0:	bf 60 42 60 00       	mov    $0x604260,%edi
  4010f5:	e8 f4 05 00 00       	callq  4016ee <_ZNSt3mapISt4pairIicEiSt4lessIS1_ESaIS0_IKS1_iEEEixERS4_>
  4010fa:	c7 00 03 00 00 00    	movl   $0x3,(%rax)
  401100:	c6 45 eb 6f          	movb   $0x6f,-0x15(%rbp)
  401104:	c7 45 ec 01 00 00 00 	movl   $0x1,-0x14(%rbp)
  40110b:	48 8d 55 eb          	lea    -0x15(%rbp),%rdx
  40110f:	48 8d 4d ec          	lea    -0x14(%rbp),%rcx
  401113:	48 8d 45 f0          	lea    -0x10(%rbp),%rax
  401117:	48 89 ce             	mov    %rcx,%rsi
  40111a:	48 89 c7             	mov    %rax,%rdi
  40111d:	e8 a0 05 00 00       	callq  4016c2 <_ZNSt4pairIicEC1ERKiRKc>
  401122:	48 8d 45 f0          	lea    -0x10(%rbp),%rax
  401126:	48 89 c6             	mov    %rax,%rsi
  401129:	bf 60 42 60 00       	mov    $0x604260,%edi
  40112e:	e8 bb 05 00 00       	callq  4016ee <_ZNSt3mapISt4pairIicEiSt4lessIS1_ESaIS0_IKS1_iEEEixERS4_>
  401133:	c7 00 04 00 00 00    	movl   $0x4,(%rax)
  401139:	c6 45 eb 61          	movb   $0x61,-0x15(%rbp)
  40113d:	c7 45 ec 02 00 00 00 	movl   $0x2,-0x14(%rbp)
  401144:	48 8d 55 eb          	lea    -0x15(%rbp),%rdx
  401148:	48 8d 4d ec          	lea    -0x14(%rbp),%rcx
  40114c:	48 8d 45 f0          	lea    -0x10(%rbp),%rax
  401150:	48 89 ce             	mov    %rcx,%rsi
  401153:	48 89 c7             	mov    %rax,%rdi
  401156:	e8 67 05 00 00       	callq  4016c2 <_ZNSt4pairIicEC1ERKiRKc>
  40115b:	48 8d 45 f0          	lea    -0x10(%rbp),%rax
  40115f:	48 89 c6             	mov    %rax,%rsi
  401162:	bf 60 42 60 00       	mov    $0x604260,%edi
  401167:	e8 82 05 00 00       	callq  4016ee <_ZNSt3mapISt4pairIicEiSt4lessIS1_ESaIS0_IKS1_iEEEixERS4_>
  40116c:	c7 00 05 00 00 00    	movl   $0x5,(%rax)
  401172:	c6 45 eb 6c          	movb   $0x6c,-0x15(%rbp)
  401176:	c7 45 ec 03 00 00 00 	movl   $0x3,-0x14(%rbp)
  40117d:	48 8d 55 eb          	lea    -0x15(%rbp),%rdx
  401181:	48 8d 4d ec          	lea    -0x14(%rbp),%rcx
  401185:	48 8d 45 f0          	lea    -0x10(%rbp),%rax
  401189:	48 89 ce             	mov    %rcx,%rsi
  40118c:	48 89 c7             	mov    %rax,%rdi
  40118f:	e8 2e 05 00 00       	callq  4016c2 <_ZNSt4pairIicEC1ERKiRKc>
  401194:	48 8d 45 f0          	lea    -0x10(%rbp),%rax
  401198:	48 89 c6             	mov    %rax,%rsi
  40119b:	bf 60 42 60 00       	mov    $0x604260,%edi
  4011a0:	e8 49 05 00 00       	callq  4016ee <_ZNSt3mapISt4pairIicEiSt4lessIS1_ESaIS0_IKS1_iEEEixERS4_>
  4011a5:	c7 00 06 00 00 00    	movl   $0x6,(%rax)
  4011ab:	c6 45 eb 73          	movb   $0x73,-0x15(%rbp)
  4011af:	c7 45 ec 03 00 00 00 	movl   $0x3,-0x14(%rbp)
  4011b6:	48 8d 55 eb          	lea    -0x15(%rbp),%rdx
  4011ba:	48 8d 4d ec          	lea    -0x14(%rbp),%rcx
  4011be:	48 8d 45 f0          	lea    -0x10(%rbp),%rax
  4011c2:	48 89 ce             	mov    %rcx,%rsi
  4011c5:	48 89 c7             	mov    %rax,%rdi
  4011c8:	e8 f5 04 00 00       	callq  4016c2 <_ZNSt4pairIicEC1ERKiRKc>
  4011cd:	48 8d 45 f0          	lea    -0x10(%rbp),%rax
  4011d1:	48 89 c6             	mov    %rax,%rsi
  4011d4:	bf 60 42 60 00       	mov    $0x604260,%edi
  4011d9:	e8 10 05 00 00       	callq  4016ee <_ZNSt3mapISt4pairIicEiSt4lessIS1_ESaIS0_IKS1_iEEEixERS4_>
  4011de:	c7 00 07 00 00 00    	movl   $0x7,(%rax)
  4011e4:	c6 45 eb 6e          	movb   $0x6e,-0x15(%rbp)
  4011e8:	c7 45 ec 04 00 00 00 	movl   $0x4,-0x14(%rbp)
  4011ef:	48 8d 55 eb          	lea    -0x15(%rbp),%rdx
  4011f3:	48 8d 4d ec          	lea    -0x14(%rbp),%rcx
  4011f7:	48 8d 45 f0          	lea    -0x10(%rbp),%rax
  4011fb:	48 89 ce             	mov    %rcx,%rsi
  4011fe:	48 89 c7             	mov    %rax,%rdi
  401201:	e8 bc 04 00 00       	callq  4016c2 <_ZNSt4pairIicEC1ERKiRKc>
  401206:	48 8d 45 f0          	lea    -0x10(%rbp),%rax
  40120a:	48 89 c6             	mov    %rax,%rsi
  40120d:	bf 60 42 60 00       	mov    $0x604260,%edi
  401212:	e8 d7 04 00 00       	callq  4016ee <_ZNSt3mapISt4pairIicEiSt4lessIS1_ESaIS0_IKS1_iEEEixERS4_>
  401217:	c7 00 08 00 00 00    	movl   $0x8,(%rax)
  40121d:	c6 45 eb 72          	movb   $0x72,-0x15(%rbp)
  401221:	c7 45 ec 05 00 00 00 	movl   $0x5,-0x14(%rbp)
  401228:	48 8d 55 eb          	lea    -0x15(%rbp),%rdx
  40122c:	48 8d 4d ec          	lea    -0x14(%rbp),%rcx
  401230:	48 8d 45 f0          	lea    -0x10(%rbp),%rax
  401234:	48 89 ce             	mov    %rcx,%rsi
  401237:	48 89 c7             	mov    %rax,%rdi
  40123a:	e8 83 04 00 00       	callq  4016c2 <_ZNSt4pairIicEC1ERKiRKc>
  40123f:	48 8d 45 f0          	lea    -0x10(%rbp),%rax
  401243:	48 89 c6             	mov    %rax,%rsi
  401246:	bf 60 42 60 00       	mov    $0x604260,%edi
  40124b:	e8 9e 04 00 00       	callq  4016ee <_ZNSt3mapISt4pairIicEiSt4lessIS1_ESaIS0_IKS1_iEEEixERS4_>
  401250:	c7 00 0c 00 00 00    	movl   $0xc,(%rax)
  401256:	c6 45 eb 6c          	movb   $0x6c,-0x15(%rbp)
  40125a:	c7 45 ec 06 00 00 00 	movl   $0x6,-0x14(%rbp)
  401261:	48 8d 55 eb          	lea    -0x15(%rbp),%rdx
  401265:	48 8d 4d ec          	lea    -0x14(%rbp),%rcx
  401269:	48 8d 45 f0          	lea    -0x10(%rbp),%rax
  40126d:	48 89 ce             	mov    %rcx,%rsi
  401270:	48 89 c7             	mov    %rax,%rdi
  401273:	e8 4a 04 00 00       	callq  4016c2 <_ZNSt4pairIicEC1ERKiRKc>
  401278:	48 8d 45 f0          	lea    -0x10(%rbp),%rax
  40127c:	48 89 c6             	mov    %rax,%rsi
  40127f:	bf 60 42 60 00       	mov    $0x604260,%edi
  401284:	e8 65 04 00 00       	callq  4016ee <_ZNSt3mapISt4pairIicEiSt4lessIS1_ESaIS0_IKS1_iEEEixERS4_>
  401289:	c7 00 09 00 00 00    	movl   $0x9,(%rax)
  40128f:	c6 45 eb 65          	movb   $0x65,-0x15(%rbp)
  401293:	c7 45 ec 07 00 00 00 	movl   $0x7,-0x14(%rbp)
  40129a:	48 8d 55 eb          	lea    -0x15(%rbp),%rdx
  40129e:	48 8d 4d ec          	lea    -0x14(%rbp),%rcx
  4012a2:	48 8d 45 f0          	lea    -0x10(%rbp),%rax
  4012a6:	48 89 ce             	mov    %rcx,%rsi
  4012a9:	48 89 c7             	mov    %rax,%rdi
  4012ac:	e8 11 04 00 00       	callq  4016c2 <_ZNSt4pairIicEC1ERKiRKc>
  4012b1:	48 8d 45 f0          	lea    -0x10(%rbp),%rax
  4012b5:	48 89 c6             	mov    %rax,%rsi
  4012b8:	bf 60 42 60 00       	mov    $0x604260,%edi
  4012bd:	e8 2c 04 00 00       	callq  4016ee <_ZNSt3mapISt4pairIicEiSt4lessIS1_ESaIS0_IKS1_iEEEixERS4_>
  4012c2:	c7 00 0c 00 00 00    	movl   $0xc,(%rax)
  4012c8:	c6 45 eb 73          	movb   $0x73,-0x15(%rbp)
  4012cc:	c7 45 ec 08 00 00 00 	movl   $0x8,-0x14(%rbp)
  4012d3:	48 8d 55 eb          	lea    -0x15(%rbp),%rdx
  4012d7:	48 8d 4d ec          	lea    -0x14(%rbp),%rcx
  4012db:	48 8d 45 f0          	lea    -0x10(%rbp),%rax
  4012df:	48 89 ce             	mov    %rcx,%rsi
  4012e2:	48 89 c7             	mov    %rax,%rdi
  4012e5:	e8 d8 03 00 00       	callq  4016c2 <_ZNSt4pairIicEC1ERKiRKc>
  4012ea:	48 8d 45 f0          	lea    -0x10(%rbp),%rax
  4012ee:	48 89 c6             	mov    %rax,%rsi
  4012f1:	bf 60 42 60 00       	mov    $0x604260,%edi
  4012f6:	e8 f3 03 00 00       	callq  4016ee <_ZNSt3mapISt4pairIicEiSt4lessIS1_ESaIS0_IKS1_iEEEixERS4_>
  4012fb:	c7 00 0a 00 00 00    	movl   $0xa,(%rax)
  401301:	c6 45 eb 6f          	movb   $0x6f,-0x15(%rbp)
  401305:	c7 45 ec 09 00 00 00 	movl   $0x9,-0x14(%rbp)
  40130c:	48 8d 55 eb          	lea    -0x15(%rbp),%rdx
  401310:	48 8d 4d ec          	lea    -0x14(%rbp),%rcx
  401314:	48 8d 45 f0          	lea    -0x10(%rbp),%rax
  401318:	48 89 ce             	mov    %rcx,%rsi
  40131b:	48 89 c7             	mov    %rax,%rdi
  40131e:	e8 9f 03 00 00       	callq  4016c2 <_ZNSt4pairIicEC1ERKiRKc>
  401323:	48 8d 45 f0          	lea    -0x10(%rbp),%rax
  401327:	48 89 c6             	mov    %rax,%rsi
  40132a:	bf 60 42 60 00       	mov    $0x604260,%edi
  40132f:	e8 ba 03 00 00       	callq  4016ee <_ZNSt3mapISt4pairIicEiSt4lessIS1_ESaIS0_IKS1_iEEEixERS4_>
  401334:	c7 00 0b 00 00 00    	movl   $0xb,(%rax)
  40133a:	c6 45 eb 74          	movb   $0x74,-0x15(%rbp)
  40133e:	c7 45 ec 0a 00 00 00 	movl   $0xa,-0x14(%rbp)
  401345:	48 8d 55 eb          	lea    -0x15(%rbp),%rdx
  401349:	48 8d 4d ec          	lea    -0x14(%rbp),%rcx
  40134d:	48 8d 45 f0          	lea    -0x10(%rbp),%rax
  401351:	48 89 ce             	mov    %rcx,%rsi
  401354:	48 89 c7             	mov    %rax,%rdi
  401357:	e8 66 03 00 00       	callq  4016c2 <_ZNSt4pairIicEC1ERKiRKc>
  40135c:	48 8d 45 f0          	lea    -0x10(%rbp),%rax
  401360:	48 89 c6             	mov    %rax,%rsi
  401363:	bf 60 42 60 00       	mov    $0x604260,%edi
  401368:	e8 81 03 00 00       	callq  4016ee <_ZNSt3mapISt4pairIicEiSt4lessIS1_ESaIS0_IKS1_iEEEixERS4_>
  40136d:	c7 00 0c 00 00 00    	movl   $0xc,(%rax)
  401373:	c6 45 eb 63          	movb   $0x63,-0x15(%rbp)
  401377:	c7 45 ec 0b 00 00 00 	movl   $0xb,-0x14(%rbp)
  40137e:	48 8d 55 eb          	lea    -0x15(%rbp),%rdx
  401382:	48 8d 4d ec          	lea    -0x14(%rbp),%rcx
  401386:	48 8d 45 f0          	lea    -0x10(%rbp),%rax
  40138a:	48 89 ce             	mov    %rcx,%rsi
  40138d:	48 89 c7             	mov    %rax,%rdi
  401390:	e8 2d 03 00 00       	callq  4016c2 <_ZNSt4pairIicEC1ERKiRKc>
  401395:	48 8d 45 f0          	lea    -0x10(%rbp),%rax
  401399:	48 89 c6             	mov    %rax,%rsi
  40139c:	bf 60 42 60 00       	mov    $0x604260,%edi
  4013a1:	e8 48 03 00 00       	callq  4016ee <_ZNSt3mapISt4pairIicEiSt4lessIS1_ESaIS0_IKS1_iEEEixERS4_>
  4013a6:	c7 00 0c 00 00 00    	movl   $0xc,(%rax)
  4013ac:	c9                   	leaveq 
  4013ad:	c3                   	retq   

00000000004013ae <main>:
  4013ae:	55                   	push   %rbp
  4013af:	48 89 e5             	mov    %rsp,%rbp
  4013b2:	53                   	push   %rbx
  4013b3:	48 83 ec 58          	sub    $0x58,%rsp
  4013b7:	e8 91 fc ff ff       	callq  40104d <_Z6preDFAv>
  4013bc:	48 8b 05 5d 2d 20 00 	mov    0x202d5d(%rip),%rax        # 604120 <stdin@@GLIBC_2.2.5>
  4013c3:	48 89 c2             	mov    %rax,%rdx
  4013c6:	be 98 29 40 00       	mov    $0x402998,%esi
  4013cb:	bf 9a 29 40 00       	mov    $0x40299a,%edi
  4013d0:	e8 fb fa ff ff       	callq  400ed0 <freopen@plt>
  4013d5:	48 89 45 e8          	mov    %rax,-0x18(%rbp)
  4013d9:	c7 45 ac 01 00 00 00 	movl   $0x1,-0x54(%rbp)
  4013e0:	48 8d 45 e0          	lea    -0x20(%rbp),%rax
  4013e4:	48 89 c7             	mov    %rax,%rdi
  4013e7:	e8 24 fb ff ff       	callq  400f10 <_ZNSaIcEC1Ev@plt>
  4013ec:	48 8d 55 e0          	lea    -0x20(%rbp),%rdx
  4013f0:	48 8d 45 b0          	lea    -0x50(%rbp),%rax
  4013f4:	be a1 29 40 00       	mov    $0x4029a1,%esi
  4013f9:	48 89 c7             	mov    %rax,%rdi
  4013fc:	e8 5f fa ff ff       	callq  400e60 <_ZNSsC1EPKcRKSaIcE@plt>
  401401:	48 8d 45 e0          	lea    -0x20(%rbp),%rax
  401405:	48 89 c7             	mov    %rax,%rdi
  401408:	e8 a3 fa ff ff       	callq  400eb0 <_ZNSaIcED1Ev@plt>
  40140d:	e9 9e 01 00 00       	jmpq   4015b0 <main+0x202>
  401412:	80 7d a7 20          	cmpb   $0x20,-0x59(%rbp)
  401416:	74 0a                	je     401422 <main+0x74>
  401418:	80 7d a7 0a          	cmpb   $0xa,-0x59(%rbp)
  40141c:	0f 85 58 01 00 00    	jne    40157a <main+0x1cc>
  401422:	c7 45 a8 00 00 00 00 	movl   $0x0,-0x58(%rbp)
  401429:	e9 0f 01 00 00       	jmpq   40153d <main+0x18f>
  40142e:	bf 60 42 60 00       	mov    $0x604260,%edi
  401433:	e8 f4 03 00 00       	callq  40182c <_ZNSt3mapISt4pairIicEiSt4lessIS1_ESaIS0_IKS1_iEEE3endEv>
  401438:	48 89 45 e0          	mov    %rax,-0x20(%rbp)
  40143c:	8b 45 a8             	mov    -0x58(%rbp),%eax
  40143f:	48 63 d0             	movslq %eax,%rdx
  401442:	48 8d 45 b0          	lea    -0x50(%rbp),%rax
  401446:	48 89 d6             	mov    %rdx,%rsi
  401449:	48 89 c7             	mov    %rax,%rdi
  40144c:	e8 1f fa ff ff       	callq  400e70 <_ZNSsixEm@plt>
  401451:	48 89 c2             	mov    %rax,%rdx
  401454:	48 8d 45 c0          	lea    -0x40(%rbp),%rax
  401458:	be 90 42 60 00       	mov    $0x604290,%esi
  40145d:	48 89 c7             	mov    %rax,%rdi
  401460:	e8 5d 02 00 00       	callq  4016c2 <_ZNSt4pairIicEC1ERKiRKc>
  401465:	48 8d 45 c0          	lea    -0x40(%rbp),%rax
  401469:	48 89 c6             	mov    %rax,%rsi
  40146c:	bf 60 42 60 00       	mov    $0x604260,%edi
  401471:	e8 90 03 00 00       	callq  401806 <_ZNSt3mapISt4pairIicEiSt4lessIS1_ESaIS0_IKS1_iEEE4findERS4_>
  401476:	48 89 45 d0          	mov    %rax,-0x30(%rbp)
  40147a:	48 8d 55 e0          	lea    -0x20(%rbp),%rdx
  40147e:	48 8d 45 d0          	lea    -0x30(%rbp),%rax
  401482:	48 89 d6             	mov    %rdx,%rsi
  401485:	48 89 c7             	mov    %rax,%rdi
  401488:	e8 b9 03 00 00       	callq  401846 <_ZNKSt17_Rb_tree_iteratorISt4pairIKS0_IicEiEEeqERKS4_>
  40148d:	84 c0                	test   %al,%al
  40148f:	74 05                	je     401496 <main+0xe8>
  401491:	e9 c7 00 00 00       	jmpq   40155d <main+0x1af>
  401496:	8b 45 a8             	mov    -0x58(%rbp),%eax
  401499:	48 63 d0             	movslq %eax,%rdx
  40149c:	48 8d 45 b0          	lea    -0x50(%rbp),%rax
  4014a0:	48 89 d6             	mov    %rdx,%rsi
  4014a3:	48 89 c7             	mov    %rax,%rdi
  4014a6:	e8 c5 f9 ff ff       	callq  400e70 <_ZNSsixEm@plt>
  4014ab:	48 89 c2             	mov    %rax,%rdx
  4014ae:	48 8d 45 e0          	lea    -0x20(%rbp),%rax
  4014b2:	be 90 42 60 00       	mov    $0x604290,%esi
  4014b7:	48 89 c7             	mov    %rax,%rdi
  4014ba:	e8 03 02 00 00       	callq  4016c2 <_ZNSt4pairIicEC1ERKiRKc>
  4014bf:	48 8d 45 e0          	lea    -0x20(%rbp),%rax
  4014c3:	48 89 c6             	mov    %rax,%rsi
  4014c6:	bf 60 42 60 00       	mov    $0x604260,%edi
  4014cb:	e8 1e 02 00 00       	callq  4016ee <_ZNSt3mapISt4pairIicEiSt4lessIS1_ESaIS0_IKS1_iEEEixERS4_>
  4014d0:	8b 00                	mov    (%rax),%eax
  4014d2:	89 05 b8 2d 20 00    	mov    %eax,0x202db8(%rip)        # 604290 <state>
  4014d8:	8b 05 b2 2d 20 00    	mov    0x202db2(%rip),%eax        # 604290 <state>
  4014de:	83 f8 0c             	cmp    $0xc,%eax
  4014e1:	75 22                	jne    401505 <main+0x157>
  4014e3:	8b 45 a8             	mov    -0x58(%rbp),%eax
  4014e6:	48 63 d8             	movslq %eax,%rbx
  4014e9:	48 8d 45 b0          	lea    -0x50(%rbp),%rax
  4014ed:	48 89 c7             	mov    %rax,%rdi
  4014f0:	e8 cb f8 ff ff       	callq  400dc0 <_ZNKSs4sizeEv@plt>
  4014f5:	48 83 e8 01          	sub    $0x1,%rax
  4014f9:	48 39 c3             	cmp    %rax,%rbx
  4014fc:	75 07                	jne    401505 <main+0x157>
  4014fe:	b8 01 00 00 00       	mov    $0x1,%eax
  401503:	eb 05                	jmp    40150a <main+0x15c>
  401505:	b8 00 00 00 00       	mov    $0x0,%eax
  40150a:	84 c0                	test   %al,%al
  40150c:	74 2b                	je     401539 <main+0x18b>
  40150e:	48 8d 45 b0          	lea    -0x50(%rbp),%rax
  401512:	48 89 c6             	mov    %rax,%rsi
  401515:	bf 40 41 60 00       	mov    $0x604140,%edi
  40151a:	e8 81 f9 ff ff       	callq  400ea0 <_ZStlsIcSt11char_traitsIcESaIcEERSt13basic_ostreamIT_T0_ES7_RKSbIS4_S5_T1_E@plt>
  40151f:	be a2 29 40 00       	mov    $0x4029a2,%esi
  401524:	48 89 c7             	mov    %rax,%rdi
  401527:	e8 04 f9 ff ff       	callq  400e30 <_ZStlsISt11char_traitsIcEERSt13basic_ostreamIcT_ES5_PKc@plt>
  40152c:	be 00 0f 40 00       	mov    $0x400f00,%esi
  401531:	48 89 c7             	mov    %rax,%rdi
  401534:	e8 87 f9 ff ff       	callq  400ec0 <_ZNSolsEPFRSoS_E@plt>
  401539:	83 45 a8 01          	addl   $0x1,-0x58(%rbp)
  40153d:	8b 45 a8             	mov    -0x58(%rbp),%eax
  401540:	48 63 d8             	movslq %eax,%rbx
  401543:	48 8d 45 b0          	lea    -0x50(%rbp),%rax
  401547:	48 89 c7             	mov    %rax,%rdi
  40154a:	e8 71 f8 ff ff       	callq  400dc0 <_ZNKSs4sizeEv@plt>
  40154f:	48 39 c3             	cmp    %rax,%rbx
  401552:	0f 92 c0             	setb   %al
  401555:	84 c0                	test   %al,%al
  401557:	0f 85 d1 fe ff ff    	jne    40142e <main+0x80>
  40155d:	48 8d 45 b0          	lea    -0x50(%rbp),%rax
  401561:	be a1 29 40 00       	mov    $0x4029a1,%esi
  401566:	48 89 c7             	mov    %rax,%rdi
  401569:	e8 22 f8 ff ff       	callq  400d90 <_ZNSsaSEPKc@plt>
  40156e:	c7 05 18 2d 20 00 00 	movl   $0x0,0x202d18(%rip)        # 604290 <state>
  401575:	00 00 00 
  401578:	eb 36                	jmp    4015b0 <main+0x202>
  40157a:	0f be 55 a7          	movsbl -0x59(%rbp),%edx
  40157e:	48 8d 45 e0          	lea    -0x20(%rbp),%rax
  401582:	48 8d 4d b0          	lea    -0x50(%rbp),%rcx
  401586:	48 89 ce             	mov    %rcx,%rsi
  401589:	48 89 c7             	mov    %rax,%rdi
  40158c:	e8 d7 02 00 00       	callq  401868 <_ZStplIcSt11char_traitsIcESaIcEESbIT_T0_T1_ERKS6_S3_>
  401591:	48 8d 55 e0          	lea    -0x20(%rbp),%rdx
  401595:	48 8d 45 b0          	lea    -0x50(%rbp),%rax
  401599:	48 89 d6             	mov    %rdx,%rsi
  40159c:	48 89 c7             	mov    %rax,%rdi
  40159f:	e8 ac f9 ff ff       	callq  400f50 <_ZNSsaSERKSs@plt>
  4015a4:	48 8d 45 e0          	lea    -0x20(%rbp),%rax
  4015a8:	48 89 c7             	mov    %rax,%rdi
  4015ab:	e8 90 f8 ff ff       	callq  400e40 <_ZNSsD1Ev@plt>
  4015b0:	e8 cb f8 ff ff       	callq  400e80 <getchar@plt>
  4015b5:	88 45 a7             	mov    %al,-0x59(%rbp)
  4015b8:	80 7d a7 ff          	cmpb   $0xff,-0x59(%rbp)
  4015bc:	0f 95 c0             	setne  %al
  4015bf:	84 c0                	test   %al,%al
  4015c1:	0f 85 4b fe ff ff    	jne    401412 <main+0x64>
  4015c7:	48 8d 45 b0          	lea    -0x50(%rbp),%rax
  4015cb:	48 89 c7             	mov    %rax,%rdi
  4015ce:	e8 6d f8 ff ff       	callq  400e40 <_ZNSsD1Ev@plt>
  4015d3:	b8 00 00 00 00       	mov    $0x0,%eax
  4015d8:	eb 45                	jmp    40161f <main+0x271>
  4015da:	48 89 c3             	mov    %rax,%rbx
  4015dd:	48 8d 45 e0          	lea    -0x20(%rbp),%rax
  4015e1:	48 89 c7             	mov    %rax,%rdi
  4015e4:	e8 c7 f8 ff ff       	callq  400eb0 <_ZNSaIcED1Ev@plt>
  4015e9:	48 89 d8             	mov    %rbx,%rax
  4015ec:	48 89 c7             	mov    %rax,%rdi
  4015ef:	e8 4c f9 ff ff       	callq  400f40 <_Unwind_Resume@plt>
  4015f4:	48 89 c3             	mov    %rax,%rbx
  4015f7:	48 8d 45 e0          	lea    -0x20(%rbp),%rax
  4015fb:	48 89 c7             	mov    %rax,%rdi
  4015fe:	e8 3d f8 ff ff       	callq  400e40 <_ZNSsD1Ev@plt>
  401603:	eb 03                	jmp    401608 <main+0x25a>
  401605:	48 89 c3             	mov    %rax,%rbx
  401608:	48 8d 45 b0          	lea    -0x50(%rbp),%rax
  40160c:	48 89 c7             	mov    %rax,%rdi
  40160f:	e8 2c f8 ff ff       	callq  400e40 <_ZNSsD1Ev@plt>
  401614:	48 89 d8             	mov    %rbx,%rax
  401617:	48 89 c7             	mov    %rax,%rdi
  40161a:	e8 21 f9 ff ff       	callq  400f40 <_Unwind_Resume@plt>
  40161f:	48 83 c4 58          	add    $0x58,%rsp
  401623:	5b                   	pop    %rbx
  401624:	5d                   	pop    %rbp
  401625:	c3                   	retq   

0000000000401626 <_Z41__static_initialization_and_destruction_0ii>:
  401626:	55                   	push   %rbp
  401627:	48 89 e5             	mov    %rsp,%rbp
  40162a:	48 83 ec 10          	sub    $0x10,%rsp
  40162e:	89 7d fc             	mov    %edi,-0x4(%rbp)
  401631:	89 75 f8             	mov    %esi,-0x8(%rbp)
  401634:	83 7d fc 01          	cmpl   $0x1,-0x4(%rbp)
  401638:	75 45                	jne    40167f <_Z41__static_initialization_and_destruction_0ii+0x59>
  40163a:	81 7d f8 ff ff 00 00 	cmpl   $0xffff,-0x8(%rbp)
  401641:	75 3c                	jne    40167f <_Z41__static_initialization_and_destruction_0ii+0x59>
  401643:	bf 94 42 60 00       	mov    $0x604294,%edi
  401648:	e8 83 f7 ff ff       	callq  400dd0 <_ZNSt8ios_base4InitC1Ev@plt>
  40164d:	ba 08 41 60 00       	mov    $0x604108,%edx
  401652:	be 94 42 60 00       	mov    $0x604294,%esi
  401657:	bf 20 0e 40 00       	mov    $0x400e20,%edi
  40165c:	e8 af f7 ff ff       	callq  400e10 <__cxa_atexit@plt>
  401661:	bf 60 42 60 00       	mov    $0x604260,%edi
  401666:	e8 3d 00 00 00       	callq  4016a8 <_ZNSt3mapISt4pairIicEiSt4lessIS1_ESaIS0_IKS1_iEEEC1Ev>
  40166b:	ba 08 41 60 00       	mov    $0x604108,%edx
  401670:	be 60 42 60 00       	mov    $0x604260,%esi
  401675:	bf ea 28 40 00       	mov    $0x4028ea,%edi
  40167a:	e8 91 f7 ff ff       	callq  400e10 <__cxa_atexit@plt>
  40167f:	c9                   	leaveq 
  401680:	c3                   	retq   

0000000000401681 <_GLOBAL__sub_I_edge>:
  401681:	55                   	push   %rbp
  401682:	48 89 e5             	mov    %rsp,%rbp
  401685:	be ff ff 00 00       	mov    $0xffff,%esi
  40168a:	bf 01 00 00 00       	mov    $0x1,%edi
  40168f:	e8 92 ff ff ff       	callq  401626 <_Z41__static_initialization_and_destruction_0ii>
  401694:	5d                   	pop    %rbp
  401695:	c3                   	retq   

0000000000401696 <_ZnwmPv>:
  401696:	55                   	push   %rbp
  401697:	48 89 e5             	mov    %rsp,%rbp
  40169a:	48 89 7d f8          	mov    %rdi,-0x8(%rbp)
  40169e:	48 89 75 f0          	mov    %rsi,-0x10(%rbp)
  4016a2:	48 8b 45 f0          	mov    -0x10(%rbp),%rax
  4016a6:	5d                   	pop    %rbp
  4016a7:	c3                   	retq   

00000000004016a8 <_ZNSt3mapISt4pairIicEiSt4lessIS1_ESaIS0_IKS1_iEEEC1Ev>:
  4016a8:	55                   	push   %rbp
  4016a9:	48 89 e5             	mov    %rsp,%rbp
  4016ac:	48 83 ec 10          	sub    $0x10,%rsp
  4016b0:	48 89 7d f8          	mov    %rdi,-0x8(%rbp)
  4016b4:	48 8b 45 f8          	mov    -0x8(%rbp),%rax
  4016b8:	48 89 c7             	mov    %rax,%rdi
  4016bb:	e8 28 02 00 00       	callq  4018e8 <_ZNSt8_Rb_treeISt4pairIicES0_IKS1_iESt10_Select1stIS3_ESt4lessIS1_ESaIS3_EEC1Ev>
  4016c0:	c9                   	leaveq 
  4016c1:	c3                   	retq   

00000000004016c2 <_ZNSt4pairIicEC1ERKiRKc>:
  4016c2:	55                   	push   %rbp
  4016c3:	48 89 e5             	mov    %rsp,%rbp
  4016c6:	48 89 7d f8          	mov    %rdi,-0x8(%rbp)
  4016ca:	48 89 75 f0          	mov    %rsi,-0x10(%rbp)
  4016ce:	48 89 55 e8          	mov    %rdx,-0x18(%rbp)
  4016d2:	48 8b 45 f0          	mov    -0x10(%rbp),%rax
  4016d6:	8b 10                	mov    (%rax),%edx
  4016d8:	48 8b 45 f8          	mov    -0x8(%rbp),%rax
  4016dc:	89 10                	mov    %edx,(%rax)
  4016de:	48 8b 45 e8          	mov    -0x18(%rbp),%rax
  4016e2:	0f b6 10             	movzbl (%rax),%edx
  4016e5:	48 8b 45 f8          	mov    -0x8(%rbp),%rax
  4016e9:	88 50 04             	mov    %dl,0x4(%rax)
  4016ec:	5d                   	pop    %rbp
  4016ed:	c3                   	retq   

00000000004016ee <_ZNSt3mapISt4pairIicEiSt4lessIS1_ESaIS0_IKS1_iEEEixERS4_>:
  4016ee:	55                   	push   %rbp
  4016ef:	48 89 e5             	mov    %rsp,%rbp
  4016f2:	41 55                	push   %r13
  4016f4:	41 54                	push   %r12
  4016f6:	53                   	push   %rbx
  4016f7:	48 83 ec 58          	sub    $0x58,%rsp
  4016fb:	48 89 7d 98          	mov    %rdi,-0x68(%rbp)
  4016ff:	48 89 75 90          	mov    %rsi,-0x70(%rbp)
  401703:	48 8b 55 90          	mov    -0x70(%rbp),%rdx
  401707:	48 8b 45 98          	mov    -0x68(%rbp),%rax
  40170b:	48 89 d6             	mov    %rdx,%rsi
  40170e:	48 89 c7             	mov    %rax,%rdi
  401711:	e8 46 02 00 00       	callq  40195c <_ZNSt3mapISt4pairIicEiSt4lessIS1_ESaIS0_IKS1_iEEE11lower_boundERS4_>
  401716:	48 89 45 b0          	mov    %rax,-0x50(%rbp)
  40171a:	bb 00 00 00 00       	mov    $0x0,%ebx
  40171f:	41 bc 00 00 00 00    	mov    $0x0,%r12d
  401725:	48 8b 45 98          	mov    -0x68(%rbp),%rax
  401729:	48 89 c7             	mov    %rax,%rdi
  40172c:	e8 fb 00 00 00       	callq  40182c <_ZNSt3mapISt4pairIicEiSt4lessIS1_ESaIS0_IKS1_iEEE3endEv>
  401731:	48 89 45 c0          	mov    %rax,-0x40(%rbp)
  401735:	bb 01 00 00 00       	mov    $0x1,%ebx
  40173a:	48 8d 55 c0          	lea    -0x40(%rbp),%rdx
  40173e:	48 8d 45 b0          	lea    -0x50(%rbp),%rax
  401742:	48 89 d6             	mov    %rdx,%rsi
  401745:	48 89 c7             	mov    %rax,%rdi
  401748:	e8 f9 00 00 00       	callq  401846 <_ZNKSt17_Rb_tree_iteratorISt4pairIKS0_IicEiEEeqERKS4_>
  40174d:	84 c0                	test   %al,%al
  40174f:	75 3b                	jne    40178c <_ZNSt3mapISt4pairIicEiSt4lessIS1_ESaIS0_IKS1_iEEEixERS4_+0x9e>
  401751:	48 8d 45 b0          	lea    -0x50(%rbp),%rax
  401755:	48 89 c7             	mov    %rax,%rdi
  401758:	e8 47 02 00 00       	callq  4019a4 <_ZNKSt17_Rb_tree_iteratorISt4pairIKS0_IicEiEEdeEv>
  40175d:	49 89 c5             	mov    %rax,%r13
  401760:	48 8b 45 98          	mov    -0x68(%rbp),%rax
  401764:	48 89 c7             	mov    %rax,%rdi
  401767:	e8 16 02 00 00       	callq  401982 <_ZNKSt3mapISt4pairIicEiSt4lessIS1_ESaIS0_IKS1_iEEE8key_compEv>
  40176c:	41 bc 01 00 00 00    	mov    $0x1,%r12d
  401772:	48 8b 4d 90          	mov    -0x70(%rbp),%rcx
  401776:	48 8d 45 ab          	lea    -0x55(%rbp),%rax
  40177a:	4c 89 ea             	mov    %r13,%rdx
  40177d:	48 89 ce             	mov    %rcx,%rsi
  401780:	48 89 c7             	mov    %rax,%rdi
  401783:	e8 32 02 00 00       	callq  4019ba <_ZNKSt4lessISt4pairIicEEclERKS1_S4_>
  401788:	84 c0                	test   %al,%al
  40178a:	74 07                	je     401793 <_ZNSt3mapISt4pairIicEiSt4lessIS1_ESaIS0_IKS1_iEEEixERS4_+0xa5>
  40178c:	b8 01 00 00 00       	mov    $0x1,%eax
  401791:	eb 05                	jmp    401798 <_ZNSt3mapISt4pairIicEiSt4lessIS1_ESaIS0_IKS1_iEEEixERS4_+0xaa>
  401793:	b8 00 00 00 00       	mov    $0x0,%eax
  401798:	45 84 e4             	test   %r12b,%r12b
  40179b:	84 db                	test   %bl,%bl
  40179d:	84 c0                	test   %al,%al
  40179f:	74 39                	je     4017da <_ZNSt3mapISt4pairIicEiSt4lessIS1_ESaIS0_IKS1_iEEEixERS4_+0xec>
  4017a1:	c7 45 ac 00 00 00 00 	movl   $0x0,-0x54(%rbp)
  4017a8:	48 8d 55 ac          	lea    -0x54(%rbp),%rdx
  4017ac:	48 8b 4d 90          	mov    -0x70(%rbp),%rcx
  4017b0:	48 8d 45 d0          	lea    -0x30(%rbp),%rax
  4017b4:	48 89 ce             	mov    %rcx,%rsi
  4017b7:	48 89 c7             	mov    %rax,%rdi
  4017ba:	e8 25 02 00 00       	callq  4019e4 <_ZNSt4pairIKS_IicEiEC1ERS1_RKi>
  4017bf:	48 8d 55 d0          	lea    -0x30(%rbp),%rdx
  4017c3:	48 8b 4d b0          	mov    -0x50(%rbp),%rcx
  4017c7:	48 8b 45 98          	mov    -0x68(%rbp),%rax
  4017cb:	48 89 ce             	mov    %rcx,%rsi
  4017ce:	48 89 c7             	mov    %rax,%rdi
  4017d1:	e8 3c 02 00 00       	callq  401a12 <_ZNSt3mapISt4pairIicEiSt4lessIS1_ESaIS0_IKS1_iEEE6insertESt17_Rb_tree_iteratorIS5_ERKS5_>
  4017d6:	48 89 45 b0          	mov    %rax,-0x50(%rbp)
  4017da:	48 8d 45 b0          	lea    -0x50(%rbp),%rax
  4017de:	48 89 c7             	mov    %rax,%rdi
  4017e1:	e8 be 01 00 00       	callq  4019a4 <_ZNKSt17_Rb_tree_iteratorISt4pairIKS0_IicEiEEdeEv>
  4017e6:	48 83 c0 08          	add    $0x8,%rax
  4017ea:	eb 0e                	jmp    4017fa <_ZNSt3mapISt4pairIicEiSt4lessIS1_ESaIS0_IKS1_iEEEixERS4_+0x10c>
  4017ec:	45 84 e4             	test   %r12b,%r12b
  4017ef:	84 db                	test   %bl,%bl
  4017f1:	90                   	nop
  4017f2:	48 89 c7             	mov    %rax,%rdi
  4017f5:	e8 46 f7 ff ff       	callq  400f40 <_Unwind_Resume@plt>
  4017fa:	48 83 c4 58          	add    $0x58,%rsp
  4017fe:	5b                   	pop    %rbx
  4017ff:	41 5c                	pop    %r12
  401801:	41 5d                	pop    %r13
  401803:	5d                   	pop    %rbp
  401804:	c3                   	retq   
  401805:	90                   	nop

0000000000401806 <_ZNSt3mapISt4pairIicEiSt4lessIS1_ESaIS0_IKS1_iEEE4findERS4_>:
  401806:	55                   	push   %rbp
  401807:	48 89 e5             	mov    %rsp,%rbp
  40180a:	48 83 ec 10          	sub    $0x10,%rsp
  40180e:	48 89 7d f8          	mov    %rdi,-0x8(%rbp)
  401812:	48 89 75 f0          	mov    %rsi,-0x10(%rbp)
  401816:	48 8b 45 f8          	mov    -0x8(%rbp),%rax
  40181a:	48 8b 55 f0          	mov    -0x10(%rbp),%rdx
  40181e:	48 89 d6             	mov    %rdx,%rsi
  401821:	48 89 c7             	mov    %rax,%rdi
  401824:	e8 29 02 00 00       	callq  401a52 <_ZNSt8_Rb_treeISt4pairIicES0_IKS1_iESt10_Select1stIS3_ESt4lessIS1_ESaIS3_EE4findERS2_>
  401829:	c9                   	leaveq 
  40182a:	c3                   	retq   
  40182b:	90                   	nop

000000000040182c <_ZNSt3mapISt4pairIicEiSt4lessIS1_ESaIS0_IKS1_iEEE3endEv>:
  40182c:	55                   	push   %rbp
  40182d:	48 89 e5             	mov    %rsp,%rbp
  401830:	48 83 ec 10          	sub    $0x10,%rsp
  401834:	48 89 7d f8          	mov    %rdi,-0x8(%rbp)
  401838:	48 8b 45 f8          	mov    -0x8(%rbp),%rax
  40183c:	48 89 c7             	mov    %rax,%rdi
  40183f:	e8 d6 02 00 00       	callq  401b1a <_ZNSt8_Rb_treeISt4pairIicES0_IKS1_iESt10_Select1stIS3_ESt4lessIS1_ESaIS3_EE3endEv>
  401844:	c9                   	leaveq 
  401845:	c3                   	retq   

0000000000401846 <_ZNKSt17_Rb_tree_iteratorISt4pairIKS0_IicEiEEeqERKS4_>:
  401846:	55                   	push   %rbp
  401847:	48 89 e5             	mov    %rsp,%rbp
  40184a:	48 89 7d f8          	mov    %rdi,-0x8(%rbp)
  40184e:	48 89 75 f0          	mov    %rsi,-0x10(%rbp)
  401852:	48 8b 45 f8          	mov    -0x8(%rbp),%rax
  401856:	48 8b 10             	mov    (%rax),%rdx
  401859:	48 8b 45 f0          	mov    -0x10(%rbp),%rax
  40185d:	48 8b 00             	mov    (%rax),%rax
  401860:	48 39 c2             	cmp    %rax,%rdx
  401863:	0f 94 c0             	sete   %al
  401866:	5d                   	pop    %rbp
  401867:	c3                   	retq   

0000000000401868 <_ZStplIcSt11char_traitsIcESaIcEESbIT_T0_T1_ERKS6_S3_>:
  401868:	55                   	push   %rbp
  401869:	48 89 e5             	mov    %rsp,%rbp
  40186c:	53                   	push   %rbx
  40186d:	48 83 ec 28          	sub    $0x28,%rsp
  401871:	48 89 7d e8          	mov    %rdi,-0x18(%rbp)
  401875:	48 89 75 e0          	mov    %rsi,-0x20(%rbp)
  401879:	89 d0                	mov    %edx,%eax
  40187b:	88 45 dc             	mov    %al,-0x24(%rbp)
  40187e:	48 8b 55 e0          	mov    -0x20(%rbp),%rdx
  401882:	48 8b 45 e8          	mov    -0x18(%rbp),%rax
  401886:	48 89 d6             	mov    %rdx,%rsi
  401889:	48 89 c7             	mov    %rax,%rdi
  40188c:	e8 6f f5 ff ff       	callq  400e00 <_ZNSsC1ERKSs@plt>
  401891:	0f be 55 dc          	movsbl -0x24(%rbp),%edx
  401895:	48 8b 45 e8          	mov    -0x18(%rbp),%rax
  401899:	be 01 00 00 00       	mov    $0x1,%esi
  40189e:	48 89 c7             	mov    %rax,%rdi
  4018a1:	e8 aa f5 ff ff       	callq  400e50 <_ZNSs6appendEmc@plt>
  4018a6:	eb 1a                	jmp    4018c2 <_ZStplIcSt11char_traitsIcESaIcEESbIT_T0_T1_ERKS6_S3_+0x5a>
  4018a8:	48 89 c3             	mov    %rax,%rbx
  4018ab:	48 8b 45 e8          	mov    -0x18(%rbp),%rax
  4018af:	48 89 c7             	mov    %rax,%rdi
  4018b2:	e8 89 f5 ff ff       	callq  400e40 <_ZNSsD1Ev@plt>
  4018b7:	48 89 d8             	mov    %rbx,%rax
  4018ba:	48 89 c7             	mov    %rax,%rdi
  4018bd:	e8 7e f6 ff ff       	callq  400f40 <_Unwind_Resume@plt>
  4018c2:	48 8b 45 e8          	mov    -0x18(%rbp),%rax
  4018c6:	48 83 c4 28          	add    $0x28,%rsp
  4018ca:	5b                   	pop    %rbx
  4018cb:	5d                   	pop    %rbp
  4018cc:	c3                   	retq   
  4018cd:	90                   	nop

00000000004018ce <_ZNSt8_Rb_treeISt4pairIicES0_IKS1_iESt10_Select1stIS3_ESt4lessIS1_ESaIS3_EE13_Rb_tree_implIS7_Lb0EED1Ev>:
  4018ce:	55                   	push   %rbp
  4018cf:	48 89 e5             	mov    %rsp,%rbp
  4018d2:	48 83 ec 10          	sub    $0x10,%rsp
  4018d6:	48 89 7d f8          	mov    %rdi,-0x8(%rbp)
  4018da:	48 8b 45 f8          	mov    -0x8(%rbp),%rax
  4018de:	48 89 c7             	mov    %rax,%rdi
  4018e1:	e8 c0 02 00 00       	callq  401ba6 <_ZNSaISt13_Rb_tree_nodeISt4pairIKS0_IicEiEEED1Ev>
  4018e6:	c9                   	leaveq 
  4018e7:	c3                   	retq   

00000000004018e8 <_ZNSt8_Rb_treeISt4pairIicES0_IKS1_iESt10_Select1stIS3_ESt4lessIS1_ESaIS3_EEC1Ev>:
  4018e8:	55                   	push   %rbp
  4018e9:	48 89 e5             	mov    %rsp,%rbp
  4018ec:	48 83 ec 10          	sub    $0x10,%rsp
  4018f0:	48 89 7d f8          	mov    %rdi,-0x8(%rbp)
  4018f4:	48 8b 45 f8          	mov    -0x8(%rbp),%rax
  4018f8:	48 89 c7             	mov    %rax,%rdi
  4018fb:	e8 44 02 00 00       	callq  401b44 <_ZNSt8_Rb_treeISt4pairIicES0_IKS1_iESt10_Select1stIS3_ESt4lessIS1_ESaIS3_EE13_Rb_tree_implIS7_Lb0EEC1Ev>
  401900:	c9                   	leaveq 
  401901:	c3                   	retq   

0000000000401902 <_ZNSt8_Rb_treeISt4pairIicES0_IKS1_iESt10_Select1stIS3_ESt4lessIS1_ESaIS3_EED1Ev>:
  401902:	55                   	push   %rbp
  401903:	48 89 e5             	mov    %rsp,%rbp
  401906:	53                   	push   %rbx
  401907:	48 83 ec 18          	sub    $0x18,%rsp
  40190b:	48 89 7d e8          	mov    %rdi,-0x18(%rbp)
  40190f:	48 8b 45 e8          	mov    -0x18(%rbp),%rax
  401913:	48 89 c7             	mov    %rax,%rdi
  401916:	e8 09 03 00 00       	callq  401c24 <_ZNSt8_Rb_treeISt4pairIicES0_IKS1_iESt10_Select1stIS3_ESt4lessIS1_ESaIS3_EE8_M_beginEv>
  40191b:	48 89 c2             	mov    %rax,%rdx
  40191e:	48 8b 45 e8          	mov    -0x18(%rbp),%rax
  401922:	48 89 d6             	mov    %rdx,%rsi
  401925:	48 89 c7             	mov    %rax,%rdi
  401928:	e8 93 02 00 00       	callq  401bc0 <_ZNSt8_Rb_treeISt4pairIicES0_IKS1_iESt10_Select1stIS3_ESt4lessIS1_ESaIS3_EE8_M_eraseEPSt13_Rb_tree_nodeIS3_E>
  40192d:	48 8b 45 e8          	mov    -0x18(%rbp),%rax
  401931:	48 89 c7             	mov    %rax,%rdi
  401934:	e8 95 ff ff ff       	callq  4018ce <_ZNSt8_Rb_treeISt4pairIicES0_IKS1_iESt10_Select1stIS3_ESt4lessIS1_ESaIS3_EE13_Rb_tree_implIS7_Lb0EED1Ev>
  401939:	eb 1a                	jmp    401955 <_ZNSt8_Rb_treeISt4pairIicES0_IKS1_iESt10_Select1stIS3_ESt4lessIS1_ESaIS3_EED1Ev+0x53>
  40193b:	48 89 c3             	mov    %rax,%rbx
  40193e:	48 8b 45 e8          	mov    -0x18(%rbp),%rax
  401942:	48 89 c7             	mov    %rax,%rdi
  401945:	e8 84 ff ff ff       	callq  4018ce <_ZNSt8_Rb_treeISt4pairIicES0_IKS1_iESt10_Select1stIS3_ESt4lessIS1_ESaIS3_EE13_Rb_tree_implIS7_Lb0EED1Ev>
  40194a:	48 89 d8             	mov    %rbx,%rax
  40194d:	48 89 c7             	mov    %rax,%rdi
  401950:	e8 eb f5 ff ff       	callq  400f40 <_Unwind_Resume@plt>
  401955:	48 83 c4 18          	add    $0x18,%rsp
  401959:	5b                   	pop    %rbx
  40195a:	5d                   	pop    %rbp
  40195b:	c3                   	retq   

000000000040195c <_ZNSt3mapISt4pairIicEiSt4lessIS1_ESaIS0_IKS1_iEEE11lower_boundERS4_>:
  40195c:	55                   	push   %rbp
  40195d:	48 89 e5             	mov    %rsp,%rbp
  401960:	48 83 ec 10          	sub    $0x10,%rsp
  401964:	48 89 7d f8          	mov    %rdi,-0x8(%rbp)
  401968:	48 89 75 f0          	mov    %rsi,-0x10(%rbp)
  40196c:	48 8b 45 f8          	mov    -0x8(%rbp),%rax
  401970:	48 8b 55 f0          	mov    -0x10(%rbp),%rdx
  401974:	48 89 d6             	mov    %rdx,%rsi
  401977:	48 89 c7             	mov    %rax,%rdi
  40197a:	e8 b7 02 00 00       	callq  401c36 <_ZNSt8_Rb_treeISt4pairIicES0_IKS1_iESt10_Select1stIS3_ESt4lessIS1_ESaIS3_EE11lower_boundERS2_>
  40197f:	c9                   	leaveq 
  401980:	c3                   	retq   
  401981:	90                   	nop

0000000000401982 <_ZNKSt3mapISt4pairIicEiSt4lessIS1_ESaIS0_IKS1_iEEE8key_compEv>:
  401982:	55                   	push   %rbp
  401983:	48 89 e5             	mov    %rsp,%rbp
  401986:	53                   	push   %rbx
  401987:	48 83 ec 18          	sub    $0x18,%rsp
  40198b:	48 89 7d e8          	mov    %rdi,-0x18(%rbp)
  40198f:	48 8b 45 e8          	mov    -0x18(%rbp),%rax
  401993:	48 89 c7             	mov    %rax,%rdi
  401996:	e8 e7 02 00 00       	callq  401c82 <_ZNKSt8_Rb_treeISt4pairIicES0_IKS1_iESt10_Select1stIS3_ESt4lessIS1_ESaIS3_EE8key_compEv>
  40199b:	89 d8                	mov    %ebx,%eax
  40199d:	48 83 c4 18          	add    $0x18,%rsp
  4019a1:	5b                   	pop    %rbx
  4019a2:	5d                   	pop    %rbp
  4019a3:	c3                   	retq   

00000000004019a4 <_ZNKSt17_Rb_tree_iteratorISt4pairIKS0_IicEiEEdeEv>:
  4019a4:	55                   	push   %rbp
  4019a5:	48 89 e5             	mov    %rsp,%rbp
  4019a8:	48 89 7d f8          	mov    %rdi,-0x8(%rbp)
  4019ac:	48 8b 45 f8          	mov    -0x8(%rbp),%rax
  4019b0:	48 8b 00             	mov    (%rax),%rax
  4019b3:	48 83 c0 20          	add    $0x20,%rax
  4019b7:	5d                   	pop    %rbp
  4019b8:	c3                   	retq   
  4019b9:	90                   	nop

00000000004019ba <_ZNKSt4lessISt4pairIicEEclERKS1_S4_>:
  4019ba:	55                   	push   %rbp
  4019bb:	48 89 e5             	mov    %rsp,%rbp
  4019be:	48 83 ec 20          	sub    $0x20,%rsp
  4019c2:	48 89 7d f8          	mov    %rdi,-0x8(%rbp)
  4019c6:	48 89 75 f0          	mov    %rsi,-0x10(%rbp)
  4019ca:	48 89 55 e8          	mov    %rdx,-0x18(%rbp)
  4019ce:	48 8b 55 e8          	mov    -0x18(%rbp),%rdx
  4019d2:	48 8b 45 f0          	mov    -0x10(%rbp),%rax
  4019d6:	48 89 d6             	mov    %rdx,%rsi
  4019d9:	48 89 c7             	mov    %rax,%rdi
  4019dc:	e8 ab 02 00 00       	callq  401c8c <_ZStltIicEbRKSt4pairIT_T0_ES5_>
  4019e1:	c9                   	leaveq 
  4019e2:	c3                   	retq   
  4019e3:	90                   	nop

00000000004019e4 <_ZNSt4pairIKS_IicEiEC1ERS1_RKi>:
  4019e4:	55                   	push   %rbp
  4019e5:	48 89 e5             	mov    %rsp,%rbp
  4019e8:	48 89 7d f8          	mov    %rdi,-0x8(%rbp)
  4019ec:	48 89 75 f0          	mov    %rsi,-0x10(%rbp)
  4019f0:	48 89 55 e8          	mov    %rdx,-0x18(%rbp)
  4019f4:	48 8b 45 f8          	mov    -0x8(%rbp),%rax
  4019f8:	48 8b 55 f0          	mov    -0x10(%rbp),%rdx
  4019fc:	48 8b 12             	mov    (%rdx),%rdx
  4019ff:	48 89 10             	mov    %rdx,(%rax)
  401a02:	48 8b 45 e8          	mov    -0x18(%rbp),%rax
  401a06:	8b 10                	mov    (%rax),%edx
  401a08:	48 8b 45 f8          	mov    -0x8(%rbp),%rax
  401a0c:	89 50 08             	mov    %edx,0x8(%rax)
  401a0f:	5d                   	pop    %rbp
  401a10:	c3                   	retq   
  401a11:	90                   	nop

0000000000401a12 <_ZNSt3mapISt4pairIicEiSt4lessIS1_ESaIS0_IKS1_iEEE6insertESt17_Rb_tree_iteratorIS5_ERKS5_>:
  401a12:	55                   	push   %rbp
  401a13:	48 89 e5             	mov    %rsp,%rbp
  401a16:	48 83 ec 30          	sub    $0x30,%rsp
  401a1a:	48 89 7d e8          	mov    %rdi,-0x18(%rbp)
  401a1e:	48 89 75 e0          	mov    %rsi,-0x20(%rbp)
  401a22:	48 89 55 d8          	mov    %rdx,-0x28(%rbp)
  401a26:	48 8d 55 e0          	lea    -0x20(%rbp),%rdx
  401a2a:	48 8d 45 f0          	lea    -0x10(%rbp),%rax
  401a2e:	48 89 d6             	mov    %rdx,%rsi
  401a31:	48 89 c7             	mov    %rax,%rdi
  401a34:	e8 a1 02 00 00       	callq  401cda <_ZNSt23_Rb_tree_const_iteratorISt4pairIKS0_IicEiEEC1ERKSt17_Rb_tree_iteratorIS3_E>
  401a39:	48 8b 45 e8          	mov    -0x18(%rbp),%rax
  401a3d:	48 8b 55 d8          	mov    -0x28(%rbp),%rdx
  401a41:	48 8b 4d f0          	mov    -0x10(%rbp),%rcx
  401a45:	48 89 ce             	mov    %rcx,%rsi
  401a48:	48 89 c7             	mov    %rax,%rdi
  401a4b:	e8 a6 02 00 00       	callq  401cf6 <_ZNSt8_Rb_treeISt4pairIicES0_IKS1_iESt10_Select1stIS3_ESt4lessIS1_ESaIS3_EE17_M_insert_unique_ESt23_Rb_tree_const_iteratorIS3_ERKS3_>
  401a50:	c9                   	leaveq 
  401a51:	c3                   	retq   

0000000000401a52 <_ZNSt8_Rb_treeISt4pairIicES0_IKS1_iESt10_Select1stIS3_ESt4lessIS1_ESaIS3_EE4findERS2_>:
  401a52:	55                   	push   %rbp
  401a53:	48 89 e5             	mov    %rsp,%rbp
  401a56:	53                   	push   %rbx
  401a57:	48 83 ec 38          	sub    $0x38,%rsp
  401a5b:	48 89 7d c8          	mov    %rdi,-0x38(%rbp)
  401a5f:	48 89 75 c0          	mov    %rsi,-0x40(%rbp)
  401a63:	48 8b 45 c8          	mov    -0x38(%rbp),%rax
  401a67:	48 89 c7             	mov    %rax,%rdi
  401a6a:	e8 09 03 00 00       	callq  401d78 <_ZNSt8_Rb_treeISt4pairIicES0_IKS1_iESt10_Select1stIS3_ESt4lessIS1_ESaIS3_EE6_M_endEv>
  401a6f:	48 89 c3             	mov    %rax,%rbx
  401a72:	48 8b 45 c8          	mov    -0x38(%rbp),%rax
  401a76:	48 89 c7             	mov    %rax,%rdi
  401a79:	e8 a6 01 00 00       	callq  401c24 <_ZNSt8_Rb_treeISt4pairIicES0_IKS1_iESt10_Select1stIS3_ESt4lessIS1_ESaIS3_EE8_M_beginEv>
  401a7e:	48 89 c6             	mov    %rax,%rsi
  401a81:	48 8b 55 c0          	mov    -0x40(%rbp),%rdx
  401a85:	48 8b 45 c8          	mov    -0x38(%rbp),%rax
  401a89:	48 89 d1             	mov    %rdx,%rcx
  401a8c:	48 89 da             	mov    %rbx,%rdx
  401a8f:	48 89 c7             	mov    %rax,%rdi
  401a92:	e8 f3 02 00 00       	callq  401d8a <_ZNSt8_Rb_treeISt4pairIicES0_IKS1_iESt10_Select1stIS3_ESt4lessIS1_ESaIS3_EE14_M_lower_boundEPSt13_Rb_tree_nodeIS3_ESC_RS2_>
  401a97:	48 89 45 d0          	mov    %rax,-0x30(%rbp)
  401a9b:	bb 00 00 00 00       	mov    $0x0,%ebx
  401aa0:	48 8b 45 c8          	mov    -0x38(%rbp),%rax
  401aa4:	48 89 c7             	mov    %rax,%rdi
  401aa7:	e8 6e 00 00 00       	callq  401b1a <_ZNSt8_Rb_treeISt4pairIicES0_IKS1_iESt10_Select1stIS3_ESt4lessIS1_ESaIS3_EE3endEv>
  401aac:	48 89 45 e0          	mov    %rax,-0x20(%rbp)
  401ab0:	bb 01 00 00 00       	mov    $0x1,%ebx
  401ab5:	48 8d 55 e0          	lea    -0x20(%rbp),%rdx
  401ab9:	48 8d 45 d0          	lea    -0x30(%rbp),%rax
  401abd:	48 89 d6             	mov    %rdx,%rsi
  401ac0:	48 89 c7             	mov    %rax,%rdi
  401ac3:	e8 7e fd ff ff       	callq  401846 <_ZNKSt17_Rb_tree_iteratorISt4pairIKS0_IicEiEEeqERKS4_>
  401ac8:	84 c0                	test   %al,%al
  401aca:	75 26                	jne    401af2 <_ZNSt8_Rb_treeISt4pairIicES0_IKS1_iESt10_Select1stIS3_ESt4lessIS1_ESaIS3_EE4findERS2_+0xa0>
  401acc:	48 8b 45 d0          	mov    -0x30(%rbp),%rax
  401ad0:	48 89 c7             	mov    %rax,%rdi
  401ad3:	e8 3f 03 00 00       	callq  401e17 <_ZNSt8_Rb_treeISt4pairIicES0_IKS1_iESt10_Select1stIS3_ESt4lessIS1_ESaIS3_EE6_S_keyEPKSt18_Rb_tree_node_base>
  401ad8:	48 89 c2             	mov    %rax,%rdx
  401adb:	48 8b 45 c8          	mov    -0x38(%rbp),%rax
  401adf:	48 8b 4d c0          	mov    -0x40(%rbp),%rcx
  401ae3:	48 89 ce             	mov    %rcx,%rsi
  401ae6:	48 89 c7             	mov    %rax,%rdi
  401ae9:	e8 cc fe ff ff       	callq  4019ba <_ZNKSt4lessISt4pairIicEEclERKS1_S4_>
  401aee:	84 c0                	test   %al,%al
  401af0:	74 0e                	je     401b00 <_ZNSt8_Rb_treeISt4pairIicES0_IKS1_iESt10_Select1stIS3_ESt4lessIS1_ESaIS3_EE4findERS2_+0xae>
  401af2:	48 8b 45 c8          	mov    -0x38(%rbp),%rax
  401af6:	48 89 c7             	mov    %rax,%rdi
  401af9:	e8 1c 00 00 00       	callq  401b1a <_ZNSt8_Rb_treeISt4pairIicES0_IKS1_iESt10_Select1stIS3_ESt4lessIS1_ESaIS3_EE3endEv>
  401afe:	eb 04                	jmp    401b04 <_ZNSt8_Rb_treeISt4pairIicES0_IKS1_iESt10_Select1stIS3_ESt4lessIS1_ESaIS3_EE4findERS2_+0xb2>
  401b00:	48 8b 45 d0          	mov    -0x30(%rbp),%rax
  401b04:	84 db                	test   %bl,%bl
  401b06:	eb 0b                	jmp    401b13 <_ZNSt8_Rb_treeISt4pairIicES0_IKS1_iESt10_Select1stIS3_ESt4lessIS1_ESaIS3_EE4findERS2_+0xc1>
  401b08:	84 db                	test   %bl,%bl
  401b0a:	90                   	nop
  401b0b:	48 89 c7             	mov    %rax,%rdi
  401b0e:	e8 2d f4 ff ff       	callq  400f40 <_Unwind_Resume@plt>
  401b13:	48 83 c4 38          	add    $0x38,%rsp
  401b17:	5b                   	pop    %rbx
  401b18:	5d                   	pop    %rbp
  401b19:	c3                   	retq   

0000000000401b1a <_ZNSt8_Rb_treeISt4pairIicES0_IKS1_iESt10_Select1stIS3_ESt4lessIS1_ESaIS3_EE3endEv>:
  401b1a:	55                   	push   %rbp
  401b1b:	48 89 e5             	mov    %rsp,%rbp
  401b1e:	48 83 ec 20          	sub    $0x20,%rsp
  401b22:	48 89 7d e8          	mov    %rdi,-0x18(%rbp)
  401b26:	48 8b 45 e8          	mov    -0x18(%rbp),%rax
  401b2a:	48 8d 50 08          	lea    0x8(%rax),%rdx
  401b2e:	48 8d 45 f0          	lea    -0x10(%rbp),%rax
  401b32:	48 89 d6             	mov    %rdx,%rsi
  401b35:	48 89 c7             	mov    %rax,%rdi
  401b38:	e8 07 03 00 00       	callq  401e44 <_ZNSt17_Rb_tree_iteratorISt4pairIKS0_IicEiEEC1EPSt13_Rb_tree_nodeIS3_E>
  401b3d:	48 8b 45 f0          	mov    -0x10(%rbp),%rax
  401b41:	c9                   	leaveq 
  401b42:	c3                   	retq   
  401b43:	90                   	nop

0000000000401b44 <_ZNSt8_Rb_treeISt4pairIicES0_IKS1_iESt10_Select1stIS3_ESt4lessIS1_ESaIS3_EE13_Rb_tree_implIS7_Lb0EEC1Ev>:
  401b44:	55                   	push   %rbp
  401b45:	48 89 e5             	mov    %rsp,%rbp
  401b48:	48 83 ec 10          	sub    $0x10,%rsp
  401b4c:	48 89 7d f8          	mov    %rdi,-0x8(%rbp)
  401b50:	48 8b 45 f8          	mov    -0x8(%rbp),%rax
  401b54:	48 89 c7             	mov    %rax,%rdi
  401b57:	e8 02 03 00 00       	callq  401e5e <_ZNSaISt13_Rb_tree_nodeISt4pairIKS0_IicEiEEEC1Ev>
  401b5c:	48 8b 45 f8          	mov    -0x8(%rbp),%rax
  401b60:	c7 40 08 00 00 00 00 	movl   $0x0,0x8(%rax)
  401b67:	48 8b 45 f8          	mov    -0x8(%rbp),%rax
  401b6b:	48 c7 40 10 00 00 00 	movq   $0x0,0x10(%rax)
  401b72:	00 
  401b73:	48 8b 45 f8          	mov    -0x8(%rbp),%rax
  401b77:	48 c7 40 18 00 00 00 	movq   $0x0,0x18(%rax)
  401b7e:	00 
  401b7f:	48 8b 45 f8          	mov    -0x8(%rbp),%rax
  401b83:	48 c7 40 20 00 00 00 	movq   $0x0,0x20(%rax)
  401b8a:	00 
  401b8b:	48 8b 45 f8          	mov    -0x8(%rbp),%rax
  401b8f:	48 c7 40 28 00 00 00 	movq   $0x0,0x28(%rax)
  401b96:	00 
  401b97:	48 8b 45 f8          	mov    -0x8(%rbp),%rax
  401b9b:	48 89 c7             	mov    %rax,%rdi
  401b9e:	e8 d5 02 00 00       	callq  401e78 <_ZNSt8_Rb_treeISt4pairIicES0_IKS1_iESt10_Select1stIS3_ESt4lessIS1_ESaIS3_EE13_Rb_tree_implIS7_Lb0EE13_M_initializeEv>
  401ba3:	c9                   	leaveq 
  401ba4:	c3                   	retq   
  401ba5:	90                   	nop

0000000000401ba6 <_ZNSaISt13_Rb_tree_nodeISt4pairIKS0_IicEiEEED1Ev>:
  401ba6:	55                   	push   %rbp
  401ba7:	48 89 e5             	mov    %rsp,%rbp
  401baa:	48 83 ec 10          	sub    $0x10,%rsp
  401bae:	48 89 7d f8          	mov    %rdi,-0x8(%rbp)
  401bb2:	48 8b 45 f8          	mov    -0x8(%rbp),%rax
  401bb6:	48 89 c7             	mov    %rax,%rdi
  401bb9:	e8 fc 02 00 00       	callq  401eba <_ZN9__gnu_cxx13new_allocatorISt13_Rb_tree_nodeISt4pairIKS2_IicEiEEED1Ev>
  401bbe:	c9                   	leaveq 
  401bbf:	c3                   	retq   

0000000000401bc0 <_ZNSt8_Rb_treeISt4pairIicES0_IKS1_iESt10_Select1stIS3_ESt4lessIS1_ESaIS3_EE8_M_eraseEPSt13_Rb_tree_nodeIS3_E>:
  401bc0:	55                   	push   %rbp
  401bc1:	48 89 e5             	mov    %rsp,%rbp
  401bc4:	48 83 ec 20          	sub    $0x20,%rsp
  401bc8:	48 89 7d e8          	mov    %rdi,-0x18(%rbp)
  401bcc:	48 89 75 e0          	mov    %rsi,-0x20(%rbp)
  401bd0:	eb 49                	jmp    401c1b <_ZNSt8_Rb_treeISt4pairIicES0_IKS1_iESt10_Select1stIS3_ESt4lessIS1_ESaIS3_EE8_M_eraseEPSt13_Rb_tree_nodeIS3_E+0x5b>
  401bd2:	48 8b 45 e0          	mov    -0x20(%rbp),%rax
  401bd6:	48 89 c7             	mov    %rax,%rdi
  401bd9:	e8 e6 02 00 00       	callq  401ec4 <_ZNSt8_Rb_treeISt4pairIicES0_IKS1_iESt10_Select1stIS3_ESt4lessIS1_ESaIS3_EE8_S_rightEPSt18_Rb_tree_node_base>
  401bde:	48 89 c2             	mov    %rax,%rdx
  401be1:	48 8b 45 e8          	mov    -0x18(%rbp),%rax
  401be5:	48 89 d6             	mov    %rdx,%rsi
  401be8:	48 89 c7             	mov    %rax,%rdi
  401beb:	e8 d0 ff ff ff       	callq  401bc0 <_ZNSt8_Rb_treeISt4pairIicES0_IKS1_iESt10_Select1stIS3_ESt4lessIS1_ESaIS3_EE8_M_eraseEPSt13_Rb_tree_nodeIS3_E>
  401bf0:	48 8b 45 e0          	mov    -0x20(%rbp),%rax
  401bf4:	48 89 c7             	mov    %rax,%rdi
  401bf7:	e8 da 02 00 00       	callq  401ed6 <_ZNSt8_Rb_treeISt4pairIicES0_IKS1_iESt10_Select1stIS3_ESt4lessIS1_ESaIS3_EE7_S_leftEPSt18_Rb_tree_node_base>
  401bfc:	48 89 45 f8          	mov    %rax,-0x8(%rbp)
  401c00:	48 8b 55 e0          	mov    -0x20(%rbp),%rdx
  401c04:	48 8b 45 e8          	mov    -0x18(%rbp),%rax
  401c08:	48 89 d6             	mov    %rdx,%rsi
  401c0b:	48 89 c7             	mov    %rax,%rdi
  401c0e:	e8 d5 02 00 00       	callq  401ee8 <_ZNSt8_Rb_treeISt4pairIicES0_IKS1_iESt10_Select1stIS3_ESt4lessIS1_ESaIS3_EE15_M_destroy_nodeEPSt13_Rb_tree_nodeIS3_E>
  401c13:	48 8b 45 f8          	mov    -0x8(%rbp),%rax
  401c17:	48 89 45 e0          	mov    %rax,-0x20(%rbp)
  401c1b:	48 83 7d e0 00       	cmpq   $0x0,-0x20(%rbp)
  401c20:	75 b0                	jne    401bd2 <_ZNSt8_Rb_treeISt4pairIicES0_IKS1_iESt10_Select1stIS3_ESt4lessIS1_ESaIS3_EE8_M_eraseEPSt13_Rb_tree_nodeIS3_E+0x12>
  401c22:	c9                   	leaveq 
  401c23:	c3                   	retq   

0000000000401c24 <_ZNSt8_Rb_treeISt4pairIicES0_IKS1_iESt10_Select1stIS3_ESt4lessIS1_ESaIS3_EE8_M_beginEv>:
  401c24:	55                   	push   %rbp
  401c25:	48 89 e5             	mov    %rsp,%rbp
  401c28:	48 89 7d f8          	mov    %rdi,-0x8(%rbp)
  401c2c:	48 8b 45 f8          	mov    -0x8(%rbp),%rax
  401c30:	48 8b 40 10          	mov    0x10(%rax),%rax
  401c34:	5d                   	pop    %rbp
  401c35:	c3                   	retq   

0000000000401c36 <_ZNSt8_Rb_treeISt4pairIicES0_IKS1_iESt10_Select1stIS3_ESt4lessIS1_ESaIS3_EE11lower_boundERS2_>:
  401c36:	55                   	push   %rbp
  401c37:	48 89 e5             	mov    %rsp,%rbp
  401c3a:	53                   	push   %rbx
  401c3b:	48 83 ec 18          	sub    $0x18,%rsp
  401c3f:	48 89 7d e8          	mov    %rdi,-0x18(%rbp)
  401c43:	48 89 75 e0          	mov    %rsi,-0x20(%rbp)
  401c47:	48 8b 45 e8          	mov    -0x18(%rbp),%rax
  401c4b:	48 89 c7             	mov    %rax,%rdi
  401c4e:	e8 25 01 00 00       	callq  401d78 <_ZNSt8_Rb_treeISt4pairIicES0_IKS1_iESt10_Select1stIS3_ESt4lessIS1_ESaIS3_EE6_M_endEv>
  401c53:	48 89 c3             	mov    %rax,%rbx
  401c56:	48 8b 45 e8          	mov    -0x18(%rbp),%rax
  401c5a:	48 89 c7             	mov    %rax,%rdi
  401c5d:	e8 c2 ff ff ff       	callq  401c24 <_ZNSt8_Rb_treeISt4pairIicES0_IKS1_iESt10_Select1stIS3_ESt4lessIS1_ESaIS3_EE8_M_beginEv>
  401c62:	48 89 c6             	mov    %rax,%rsi
  401c65:	48 8b 55 e0          	mov    -0x20(%rbp),%rdx
  401c69:	48 8b 45 e8          	mov    -0x18(%rbp),%rax
  401c6d:	48 89 d1             	mov    %rdx,%rcx
  401c70:	48 89 da             	mov    %rbx,%rdx
  401c73:	48 89 c7             	mov    %rax,%rdi
  401c76:	e8 0f 01 00 00       	callq  401d8a <_ZNSt8_Rb_treeISt4pairIicES0_IKS1_iESt10_Select1stIS3_ESt4lessIS1_ESaIS3_EE14_M_lower_boundEPSt13_Rb_tree_nodeIS3_ESC_RS2_>
  401c7b:	48 83 c4 18          	add    $0x18,%rsp
  401c7f:	5b                   	pop    %rbx
  401c80:	5d                   	pop    %rbp
  401c81:	c3                   	retq   

0000000000401c82 <_ZNKSt8_Rb_treeISt4pairIicES0_IKS1_iESt10_Select1stIS3_ESt4lessIS1_ESaIS3_EE8key_compEv>:
  401c82:	55                   	push   %rbp
  401c83:	48 89 e5             	mov    %rsp,%rbp
  401c86:	48 89 7d f8          	mov    %rdi,-0x8(%rbp)
  401c8a:	5d                   	pop    %rbp
  401c8b:	c3                   	retq   

0000000000401c8c <_ZStltIicEbRKSt4pairIT_T0_ES5_>:
  401c8c:	55                   	push   %rbp
  401c8d:	48 89 e5             	mov    %rsp,%rbp
  401c90:	48 89 7d f8          	mov    %rdi,-0x8(%rbp)
  401c94:	48 89 75 f0          	mov    %rsi,-0x10(%rbp)
  401c98:	48 8b 45 f8          	mov    -0x8(%rbp),%rax
  401c9c:	8b 10                	mov    (%rax),%edx
  401c9e:	48 8b 45 f0          	mov    -0x10(%rbp),%rax
  401ca2:	8b 00                	mov    (%rax),%eax
  401ca4:	39 c2                	cmp    %eax,%edx
  401ca6:	7c 24                	jl     401ccc <_ZStltIicEbRKSt4pairIT_T0_ES5_+0x40>
  401ca8:	48 8b 45 f0          	mov    -0x10(%rbp),%rax
  401cac:	8b 10                	mov    (%rax),%edx
  401cae:	48 8b 45 f8          	mov    -0x8(%rbp),%rax
  401cb2:	8b 00                	mov    (%rax),%eax
  401cb4:	39 c2                	cmp    %eax,%edx
  401cb6:	7c 1b                	jl     401cd3 <_ZStltIicEbRKSt4pairIT_T0_ES5_+0x47>
  401cb8:	48 8b 45 f8          	mov    -0x8(%rbp),%rax
  401cbc:	0f b6 50 04          	movzbl 0x4(%rax),%edx
  401cc0:	48 8b 45 f0          	mov    -0x10(%rbp),%rax
  401cc4:	0f b6 40 04          	movzbl 0x4(%rax),%eax
  401cc8:	38 c2                	cmp    %al,%dl
  401cca:	7d 07                	jge    401cd3 <_ZStltIicEbRKSt4pairIT_T0_ES5_+0x47>
  401ccc:	b8 01 00 00 00       	mov    $0x1,%eax
  401cd1:	eb 05                	jmp    401cd8 <_ZStltIicEbRKSt4pairIT_T0_ES5_+0x4c>
  401cd3:	b8 00 00 00 00       	mov    $0x0,%eax
  401cd8:	5d                   	pop    %rbp
  401cd9:	c3                   	retq   

0000000000401cda <_ZNSt23_Rb_tree_const_iteratorISt4pairIKS0_IicEiEEC1ERKSt17_Rb_tree_iteratorIS3_E>:
  401cda:	55                   	push   %rbp
  401cdb:	48 89 e5             	mov    %rsp,%rbp
  401cde:	48 89 7d f8          	mov    %rdi,-0x8(%rbp)
  401ce2:	48 89 75 f0          	mov    %rsi,-0x10(%rbp)
  401ce6:	48 8b 45 f0          	mov    -0x10(%rbp),%rax
  401cea:	48 8b 10             	mov    (%rax),%rdx
  401ced:	48 8b 45 f8          	mov    -0x8(%rbp),%rax
  401cf1:	48 89 10             	mov    %rdx,(%rax)
  401cf4:	5d                   	pop    %rbp
  401cf5:	c3                   	retq   

0000000000401cf6 <_ZNSt8_Rb_treeISt4pairIicES0_IKS1_iESt10_Select1stIS3_ESt4lessIS1_ESaIS3_EE17_M_insert_unique_ESt23_Rb_tree_const_iteratorIS3_ERKS3_>:
  401cf6:	55                   	push   %rbp
  401cf7:	48 89 e5             	mov    %rsp,%rbp
  401cfa:	48 83 ec 40          	sub    $0x40,%rsp
  401cfe:	48 89 7d d8          	mov    %rdi,-0x28(%rbp)
  401d02:	48 89 75 d0          	mov    %rsi,-0x30(%rbp)
  401d06:	48 89 55 c8          	mov    %rdx,-0x38(%rbp)
  401d0a:	48 8b 55 c8          	mov    -0x38(%rbp),%rdx
  401d0e:	48 8d 45 e0          	lea    -0x20(%rbp),%rax
  401d12:	48 89 d6             	mov    %rdx,%rsi
  401d15:	48 89 c7             	mov    %rax,%rdi
  401d18:	e8 b1 05 00 00       	callq  4022ce <_ZNKSt10_Select1stISt4pairIKS0_IicEiEEclERKS3_>
  401d1d:	48 89 c2             	mov    %rax,%rdx
  401d20:	48 8b 4d d0          	mov    -0x30(%rbp),%rcx
  401d24:	48 8b 45 d8          	mov    -0x28(%rbp),%rax
  401d28:	48 89 ce             	mov    %rcx,%rsi
  401d2b:	48 89 c7             	mov    %rax,%rdi
  401d2e:	e8 21 02 00 00       	callq  401f54 <_ZNSt8_Rb_treeISt4pairIicES0_IKS1_iESt10_Select1stIS3_ESt4lessIS1_ESaIS3_EE29_M_get_insert_hint_unique_posESt23_Rb_tree_const_iteratorIS3_ERS2_>
  401d33:	48 89 45 f0          	mov    %rax,-0x10(%rbp)
  401d37:	48 89 55 f8          	mov    %rdx,-0x8(%rbp)
  401d3b:	48 8b 45 f8          	mov    -0x8(%rbp),%rax
  401d3f:	48 85 c0             	test   %rax,%rax
  401d42:	74 1a                	je     401d5e <_ZNSt8_Rb_treeISt4pairIicES0_IKS1_iESt10_Select1stIS3_ESt4lessIS1_ESaIS3_EE17_M_insert_unique_ESt23_Rb_tree_const_iteratorIS3_ERKS3_+0x68>
  401d44:	48 8b 55 f8          	mov    -0x8(%rbp),%rdx
  401d48:	48 8b 75 f0          	mov    -0x10(%rbp),%rsi
  401d4c:	48 8b 4d c8          	mov    -0x38(%rbp),%rcx
  401d50:	48 8b 45 d8          	mov    -0x28(%rbp),%rax
  401d54:	48 89 c7             	mov    %rax,%rdi
  401d57:	e8 84 05 00 00       	callq  4022e0 <_ZNSt8_Rb_treeISt4pairIicES0_IKS1_iESt10_Select1stIS3_ESt4lessIS1_ESaIS3_EE10_M_insert_EPSt18_Rb_tree_node_baseSB_RKS3_>
  401d5c:	eb 17                	jmp    401d75 <_ZNSt8_Rb_treeISt4pairIicES0_IKS1_iESt10_Select1stIS3_ESt4lessIS1_ESaIS3_EE17_M_insert_unique_ESt23_Rb_tree_const_iteratorIS3_ERKS3_+0x7f>
  401d5e:	48 8b 55 f0          	mov    -0x10(%rbp),%rdx
  401d62:	48 8d 45 e0          	lea    -0x20(%rbp),%rax
  401d66:	48 89 d6             	mov    %rdx,%rsi
  401d69:	48 89 c7             	mov    %rax,%rdi
  401d6c:	e8 d3 00 00 00       	callq  401e44 <_ZNSt17_Rb_tree_iteratorISt4pairIKS0_IicEiEEC1EPSt13_Rb_tree_nodeIS3_E>
  401d71:	48 8b 45 e0          	mov    -0x20(%rbp),%rax
  401d75:	c9                   	leaveq 
  401d76:	c3                   	retq   
  401d77:	90                   	nop

0000000000401d78 <_ZNSt8_Rb_treeISt4pairIicES0_IKS1_iESt10_Select1stIS3_ESt4lessIS1_ESaIS3_EE6_M_endEv>:
  401d78:	55                   	push   %rbp
  401d79:	48 89 e5             	mov    %rsp,%rbp
  401d7c:	48 89 7d f8          	mov    %rdi,-0x8(%rbp)
  401d80:	48 8b 45 f8          	mov    -0x8(%rbp),%rax
  401d84:	48 83 c0 08          	add    $0x8,%rax
  401d88:	5d                   	pop    %rbp
  401d89:	c3                   	retq   

0000000000401d8a <_ZNSt8_Rb_treeISt4pairIicES0_IKS1_iESt10_Select1stIS3_ESt4lessIS1_ESaIS3_EE14_M_lower_boundEPSt13_Rb_tree_nodeIS3_ESC_RS2_>:
  401d8a:	55                   	push   %rbp
  401d8b:	48 89 e5             	mov    %rsp,%rbp
  401d8e:	48 83 ec 30          	sub    $0x30,%rsp
  401d92:	48 89 7d e8          	mov    %rdi,-0x18(%rbp)
  401d96:	48 89 75 e0          	mov    %rsi,-0x20(%rbp)
  401d9a:	48 89 55 d8          	mov    %rdx,-0x28(%rbp)
  401d9e:	48 89 4d d0          	mov    %rcx,-0x30(%rbp)
  401da2:	eb 53                	jmp    401df7 <_ZNSt8_Rb_treeISt4pairIicES0_IKS1_iESt10_Select1stIS3_ESt4lessIS1_ESaIS3_EE14_M_lower_boundEPSt13_Rb_tree_nodeIS3_ESC_RS2_+0x6d>
  401da4:	48 8b 45 e0          	mov    -0x20(%rbp),%rax
  401da8:	48 89 c7             	mov    %rax,%rdi
  401dab:	e8 21 06 00 00       	callq  4023d1 <_ZNSt8_Rb_treeISt4pairIicES0_IKS1_iESt10_Select1stIS3_ESt4lessIS1_ESaIS3_EE6_S_keyEPKSt13_Rb_tree_nodeIS3_E>
  401db0:	48 89 c1             	mov    %rax,%rcx
  401db3:	48 8b 45 e8          	mov    -0x18(%rbp),%rax
  401db7:	48 8b 55 d0          	mov    -0x30(%rbp),%rdx
  401dbb:	48 89 ce             	mov    %rcx,%rsi
  401dbe:	48 89 c7             	mov    %rax,%rdi
  401dc1:	e8 f4 fb ff ff       	callq  4019ba <_ZNKSt4lessISt4pairIicEEclERKS1_S4_>
  401dc6:	83 f0 01             	xor    $0x1,%eax
  401dc9:	84 c0                	test   %al,%al
  401dcb:	74 1a                	je     401de7 <_ZNSt8_Rb_treeISt4pairIicES0_IKS1_iESt10_Select1stIS3_ESt4lessIS1_ESaIS3_EE14_M_lower_boundEPSt13_Rb_tree_nodeIS3_ESC_RS2_+0x5d>
  401dcd:	48 8b 45 e0          	mov    -0x20(%rbp),%rax
  401dd1:	48 89 45 d8          	mov    %rax,-0x28(%rbp)
  401dd5:	48 8b 45 e0          	mov    -0x20(%rbp),%rax
  401dd9:	48 89 c7             	mov    %rax,%rdi
  401ddc:	e8 f5 00 00 00       	callq  401ed6 <_ZNSt8_Rb_treeISt4pairIicES0_IKS1_iESt10_Select1stIS3_ESt4lessIS1_ESaIS3_EE7_S_leftEPSt18_Rb_tree_node_base>
  401de1:	48 89 45 e0          	mov    %rax,-0x20(%rbp)
  401de5:	eb 10                	jmp    401df7 <_ZNSt8_Rb_treeISt4pairIicES0_IKS1_iESt10_Select1stIS3_ESt4lessIS1_ESaIS3_EE14_M_lower_boundEPSt13_Rb_tree_nodeIS3_ESC_RS2_+0x6d>
  401de7:	48 8b 45 e0          	mov    -0x20(%rbp),%rax
  401deb:	48 89 c7             	mov    %rax,%rdi
  401dee:	e8 d1 00 00 00       	callq  401ec4 <_ZNSt8_Rb_treeISt4pairIicES0_IKS1_iESt10_Select1stIS3_ESt4lessIS1_ESaIS3_EE8_S_rightEPSt18_Rb_tree_node_base>
  401df3:	48 89 45 e0          	mov    %rax,-0x20(%rbp)
  401df7:	48 83 7d e0 00       	cmpq   $0x0,-0x20(%rbp)
  401dfc:	75 a6                	jne    401da4 <_ZNSt8_Rb_treeISt4pairIicES0_IKS1_iESt10_Select1stIS3_ESt4lessIS1_ESaIS3_EE14_M_lower_boundEPSt13_Rb_tree_nodeIS3_ESC_RS2_+0x1a>
  401dfe:	48 8b 55 d8          	mov    -0x28(%rbp),%rdx
  401e02:	48 8d 45 f0          	lea    -0x10(%rbp),%rax
  401e06:	48 89 d6             	mov    %rdx,%rsi
  401e09:	48 89 c7             	mov    %rax,%rdi
  401e0c:	e8 33 00 00 00       	callq  401e44 <_ZNSt17_Rb_tree_iteratorISt4pairIKS0_IicEiEEC1EPSt13_Rb_tree_nodeIS3_E>
  401e11:	48 8b 45 f0          	mov    -0x10(%rbp),%rax
  401e15:	c9                   	leaveq 
  401e16:	c3                   	retq   

0000000000401e17 <_ZNSt8_Rb_treeISt4pairIicES0_IKS1_iESt10_Select1stIS3_ESt4lessIS1_ESaIS3_EE6_S_keyEPKSt18_Rb_tree_node_base>:
  401e17:	55                   	push   %rbp
  401e18:	48 89 e5             	mov    %rsp,%rbp
  401e1b:	48 83 ec 20          	sub    $0x20,%rsp
  401e1f:	48 89 7d e8          	mov    %rdi,-0x18(%rbp)
  401e23:	48 8b 45 e8          	mov    -0x18(%rbp),%rax
  401e27:	48 89 c7             	mov    %rax,%rdi
  401e2a:	e8 ce 05 00 00       	callq  4023fd <_ZNSt8_Rb_treeISt4pairIicES0_IKS1_iESt10_Select1stIS3_ESt4lessIS1_ESaIS3_EE8_S_valueEPKSt18_Rb_tree_node_base>
  401e2f:	48 89 c2             	mov    %rax,%rdx
  401e32:	48 8d 45 ff          	lea    -0x1(%rbp),%rax
  401e36:	48 89 d6             	mov    %rdx,%rsi
  401e39:	48 89 c7             	mov    %rax,%rdi
  401e3c:	e8 8d 04 00 00       	callq  4022ce <_ZNKSt10_Select1stISt4pairIKS0_IicEiEEclERKS3_>
  401e41:	c9                   	leaveq 
  401e42:	c3                   	retq   
  401e43:	90                   	nop

0000000000401e44 <_ZNSt17_Rb_tree_iteratorISt4pairIKS0_IicEiEEC1EPSt13_Rb_tree_nodeIS3_E>:
  401e44:	55                   	push   %rbp
  401e45:	48 89 e5             	mov    %rsp,%rbp
  401e48:	48 89 7d f8          	mov    %rdi,-0x8(%rbp)
  401e4c:	48 89 75 f0          	mov    %rsi,-0x10(%rbp)
  401e50:	48 8b 45 f8          	mov    -0x8(%rbp),%rax
  401e54:	48 8b 55 f0          	mov    -0x10(%rbp),%rdx
  401e58:	48 89 10             	mov    %rdx,(%rax)
  401e5b:	5d                   	pop    %rbp
  401e5c:	c3                   	retq   
  401e5d:	90                   	nop

0000000000401e5e <_ZNSaISt13_Rb_tree_nodeISt4pairIKS0_IicEiEEEC1Ev>:
  401e5e:	55                   	push   %rbp
  401e5f:	48 89 e5             	mov    %rsp,%rbp
  401e62:	48 83 ec 10          	sub    $0x10,%rsp
  401e66:	48 89 7d f8          	mov    %rdi,-0x8(%rbp)
  401e6a:	48 8b 45 f8          	mov    -0x8(%rbp),%rax
  401e6e:	48 89 c7             	mov    %rax,%rdi
  401e71:	e8 9a 05 00 00       	callq  402410 <_ZN9__gnu_cxx13new_allocatorISt13_Rb_tree_nodeISt4pairIKS2_IicEiEEEC1Ev>
  401e76:	c9                   	leaveq 
  401e77:	c3                   	retq   

0000000000401e78 <_ZNSt8_Rb_treeISt4pairIicES0_IKS1_iESt10_Select1stIS3_ESt4lessIS1_ESaIS3_EE13_Rb_tree_implIS7_Lb0EE13_M_initializeEv>:
  401e78:	55                   	push   %rbp
  401e79:	48 89 e5             	mov    %rsp,%rbp
  401e7c:	48 89 7d f8          	mov    %rdi,-0x8(%rbp)
  401e80:	48 8b 45 f8          	mov    -0x8(%rbp),%rax
  401e84:	c7 40 08 00 00 00 00 	movl   $0x0,0x8(%rax)
  401e8b:	48 8b 45 f8          	mov    -0x8(%rbp),%rax
  401e8f:	48 c7 40 10 00 00 00 	movq   $0x0,0x10(%rax)
  401e96:	00 
  401e97:	48 8b 45 f8          	mov    -0x8(%rbp),%rax
  401e9b:	48 8d 50 08          	lea    0x8(%rax),%rdx
  401e9f:	48 8b 45 f8          	mov    -0x8(%rbp),%rax
  401ea3:	48 89 50 18          	mov    %rdx,0x18(%rax)
  401ea7:	48 8b 45 f8          	mov    -0x8(%rbp),%rax
  401eab:	48 8d 50 08          	lea    0x8(%rax),%rdx
  401eaf:	48 8b 45 f8          	mov    -0x8(%rbp),%rax
  401eb3:	48 89 50 20          	mov    %rdx,0x20(%rax)
  401eb7:	5d                   	pop    %rbp
  401eb8:	c3                   	retq   
  401eb9:	90                   	nop

0000000000401eba <_ZN9__gnu_cxx13new_allocatorISt13_Rb_tree_nodeISt4pairIKS2_IicEiEEED1Ev>:
  401eba:	55                   	push   %rbp
  401ebb:	48 89 e5             	mov    %rsp,%rbp
  401ebe:	48 89 7d f8          	mov    %rdi,-0x8(%rbp)
  401ec2:	5d                   	pop    %rbp
  401ec3:	c3                   	retq   

0000000000401ec4 <_ZNSt8_Rb_treeISt4pairIicES0_IKS1_iESt10_Select1stIS3_ESt4lessIS1_ESaIS3_EE8_S_rightEPSt18_Rb_tree_node_base>:
  401ec4:	55                   	push   %rbp
  401ec5:	48 89 e5             	mov    %rsp,%rbp
  401ec8:	48 89 7d f8          	mov    %rdi,-0x8(%rbp)
  401ecc:	48 8b 45 f8          	mov    -0x8(%rbp),%rax
  401ed0:	48 8b 40 18          	mov    0x18(%rax),%rax
  401ed4:	5d                   	pop    %rbp
  401ed5:	c3                   	retq   

0000000000401ed6 <_ZNSt8_Rb_treeISt4pairIicES0_IKS1_iESt10_Select1stIS3_ESt4lessIS1_ESaIS3_EE7_S_leftEPSt18_Rb_tree_node_base>:
  401ed6:	55                   	push   %rbp
  401ed7:	48 89 e5             	mov    %rsp,%rbp
  401eda:	48 89 7d f8          	mov    %rdi,-0x8(%rbp)
  401ede:	48 8b 45 f8          	mov    -0x8(%rbp),%rax
  401ee2:	48 8b 40 10          	mov    0x10(%rax),%rax
  401ee6:	5d                   	pop    %rbp
  401ee7:	c3                   	retq   

0000000000401ee8 <_ZNSt8_Rb_treeISt4pairIicES0_IKS1_iESt10_Select1stIS3_ESt4lessIS1_ESaIS3_EE15_M_destroy_nodeEPSt13_Rb_tree_nodeIS3_E>:
  401ee8:	55                   	push   %rbp
  401ee9:	48 89 e5             	mov    %rsp,%rbp
  401eec:	53                   	push   %rbx
  401eed:	48 83 ec 28          	sub    $0x28,%rsp
  401ef1:	48 89 7d d8          	mov    %rdi,-0x28(%rbp)
  401ef5:	48 89 75 d0          	mov    %rsi,-0x30(%rbp)
  401ef9:	48 8b 45 d0          	mov    -0x30(%rbp),%rax
  401efd:	48 83 c0 20          	add    $0x20,%rax
  401f01:	48 89 c7             	mov    %rax,%rdi
  401f04:	e8 5f 05 00 00       	callq  402468 <_ZSt11__addressofISt4pairIKS0_IicEiEEPT_RS4_>
  401f09:	48 89 c3             	mov    %rax,%rbx
  401f0c:	48 8d 45 ef          	lea    -0x11(%rbp),%rax
  401f10:	48 8b 55 d8          	mov    -0x28(%rbp),%rdx
  401f14:	48 89 d6             	mov    %rdx,%rsi
  401f17:	48 89 c7             	mov    %rax,%rdi
  401f1a:	e8 fb 04 00 00       	callq  40241a <_ZNKSt8_Rb_treeISt4pairIicES0_IKS1_iESt10_Select1stIS3_ESt4lessIS1_ESaIS3_EE13get_allocatorEv>
  401f1f:	48 8d 45 ef          	lea    -0x11(%rbp),%rax
  401f23:	48 89 de             	mov    %rbx,%rsi
  401f26:	48 89 c7             	mov    %rax,%rdi
  401f29:	e8 48 05 00 00       	callq  402476 <_ZN9__gnu_cxx13new_allocatorISt4pairIKS1_IicEiEE7destroyEPS4_>
  401f2e:	48 8d 45 ef          	lea    -0x11(%rbp),%rax
  401f32:	48 89 c7             	mov    %rax,%rdi
  401f35:	e8 14 05 00 00       	callq  40244e <_ZNSaISt4pairIKS_IicEiEED1Ev>
  401f3a:	48 8b 55 d0          	mov    -0x30(%rbp),%rdx
  401f3e:	48 8b 45 d8          	mov    -0x28(%rbp),%rax
  401f42:	48 89 d6             	mov    %rdx,%rsi
  401f45:	48 89 c7             	mov    %rax,%rdi
  401f48:	e8 37 05 00 00       	callq  402484 <_ZNSt8_Rb_treeISt4pairIicES0_IKS1_iESt10_Select1stIS3_ESt4lessIS1_ESaIS3_EE11_M_put_nodeEPSt13_Rb_tree_nodeIS3_E>
  401f4d:	48 83 c4 28          	add    $0x28,%rsp
  401f51:	5b                   	pop    %rbx
  401f52:	5d                   	pop    %rbp
  401f53:	c3                   	retq   

0000000000401f54 <_ZNSt8_Rb_treeISt4pairIicES0_IKS1_iESt10_Select1stIS3_ESt4lessIS1_ESaIS3_EE29_M_get_insert_hint_unique_posESt23_Rb_tree_const_iteratorIS3_ERS2_>:
  401f54:	55                   	push   %rbp
  401f55:	48 89 e5             	mov    %rsp,%rbp
  401f58:	53                   	push   %rbx
  401f59:	48 83 ec 58          	sub    $0x58,%rsp
  401f5d:	48 89 7d b8          	mov    %rdi,-0x48(%rbp)
  401f61:	48 89 75 b0          	mov    %rsi,-0x50(%rbp)
  401f65:	48 89 55 a8          	mov    %rdx,-0x58(%rbp)
  401f69:	48 8d 45 b0          	lea    -0x50(%rbp),%rax
  401f6d:	48 89 c7             	mov    %rax,%rdi
  401f70:	e8 39 05 00 00       	callq  4024ae <_ZNKSt23_Rb_tree_const_iteratorISt4pairIKS0_IicEiEE13_M_const_castEv>
  401f75:	48 89 45 c0          	mov    %rax,-0x40(%rbp)
  401f79:	48 8b 5d c0          	mov    -0x40(%rbp),%rbx
  401f7d:	48 8b 45 b8          	mov    -0x48(%rbp),%rax
  401f81:	48 89 c7             	mov    %rax,%rdi
  401f84:	e8 ef fd ff ff       	callq  401d78 <_ZNSt8_Rb_treeISt4pairIicES0_IKS1_iESt10_Select1stIS3_ESt4lessIS1_ESaIS3_EE6_M_endEv>
  401f89:	48 39 c3             	cmp    %rax,%rbx
  401f8c:	0f 94 c0             	sete   %al
  401f8f:	84 c0                	test   %al,%al
  401f91:	0f 84 a1 00 00 00    	je     402038 <_ZNSt8_Rb_treeISt4pairIicES0_IKS1_iESt10_Select1stIS3_ESt4lessIS1_ESaIS3_EE29_M_get_insert_hint_unique_posESt23_Rb_tree_const_iteratorIS3_ERS2_+0xe4>
  401f97:	48 8b 45 b8          	mov    -0x48(%rbp),%rax
  401f9b:	48 89 c7             	mov    %rax,%rdi
  401f9e:	e8 45 05 00 00       	callq  4024e8 <_ZNKSt8_Rb_treeISt4pairIicES0_IKS1_iESt10_Select1stIS3_ESt4lessIS1_ESaIS3_EE4sizeEv>
  401fa3:	48 85 c0             	test   %rax,%rax
  401fa6:	74 38                	je     401fe0 <_ZNSt8_Rb_treeISt4pairIicES0_IKS1_iESt10_Select1stIS3_ESt4lessIS1_ESaIS3_EE29_M_get_insert_hint_unique_posESt23_Rb_tree_const_iteratorIS3_ERS2_+0x8c>
  401fa8:	48 8b 45 b8          	mov    -0x48(%rbp),%rax
  401fac:	48 89 c7             	mov    %rax,%rdi
  401faf:	e8 22 05 00 00       	callq  4024d6 <_ZNSt8_Rb_treeISt4pairIicES0_IKS1_iESt10_Select1stIS3_ESt4lessIS1_ESaIS3_EE12_M_rightmostEv>
  401fb4:	48 8b 00             	mov    (%rax),%rax
  401fb7:	48 89 c7             	mov    %rax,%rdi
  401fba:	e8 58 fe ff ff       	callq  401e17 <_ZNSt8_Rb_treeISt4pairIicES0_IKS1_iESt10_Select1stIS3_ESt4lessIS1_ESaIS3_EE6_S_keyEPKSt18_Rb_tree_node_base>
  401fbf:	48 89 c1             	mov    %rax,%rcx
  401fc2:	48 8b 45 b8          	mov    -0x48(%rbp),%rax
  401fc6:	48 8b 55 a8          	mov    -0x58(%rbp),%rdx
  401fca:	48 89 ce             	mov    %rcx,%rsi
  401fcd:	48 89 c7             	mov    %rax,%rdi
  401fd0:	e8 e5 f9 ff ff       	callq  4019ba <_ZNKSt4lessISt4pairIicEEclERKS1_S4_>
  401fd5:	84 c0                	test   %al,%al
  401fd7:	74 07                	je     401fe0 <_ZNSt8_Rb_treeISt4pairIicES0_IKS1_iESt10_Select1stIS3_ESt4lessIS1_ESaIS3_EE29_M_get_insert_hint_unique_posESt23_Rb_tree_const_iteratorIS3_ERS2_+0x8c>
  401fd9:	b8 01 00 00 00       	mov    $0x1,%eax
  401fde:	eb 05                	jmp    401fe5 <_ZNSt8_Rb_treeISt4pairIicES0_IKS1_iESt10_Select1stIS3_ESt4lessIS1_ESaIS3_EE29_M_get_insert_hint_unique_posESt23_Rb_tree_const_iteratorIS3_ERS2_+0x91>
  401fe0:	b8 00 00 00 00       	mov    $0x0,%eax
  401fe5:	84 c0                	test   %al,%al
  401fe7:	74 37                	je     402020 <_ZNSt8_Rb_treeISt4pairIicES0_IKS1_iESt10_Select1stIS3_ESt4lessIS1_ESaIS3_EE29_M_get_insert_hint_unique_posESt23_Rb_tree_const_iteratorIS3_ERS2_+0xcc>
  401fe9:	48 8b 45 b8          	mov    -0x48(%rbp),%rax
  401fed:	48 89 c7             	mov    %rax,%rdi
  401ff0:	e8 e1 04 00 00       	callq  4024d6 <_ZNSt8_Rb_treeISt4pairIicES0_IKS1_iESt10_Select1stIS3_ESt4lessIS1_ESaIS3_EE12_M_rightmostEv>
  401ff5:	48 89 c2             	mov    %rax,%rdx
  401ff8:	48 c7 45 d8 00 00 00 	movq   $0x0,-0x28(%rbp)
  401fff:	00 
  402000:	48 8d 4d d8          	lea    -0x28(%rbp),%rcx
  402004:	48 8d 45 e0          	lea    -0x20(%rbp),%rax
  402008:	48 89 ce             	mov    %rcx,%rsi
  40200b:	48 89 c7             	mov    %rax,%rdi
  40200e:	e8 e7 04 00 00       	callq  4024fa <_ZNSt4pairIPSt18_Rb_tree_node_baseS1_EC1ERKS1_S4_>
  402013:	48 8b 45 e0          	mov    -0x20(%rbp),%rax
  402017:	48 8b 55 e8          	mov    -0x18(%rbp),%rdx
  40201b:	e9 a6 02 00 00       	jmpq   4022c6 <_ZNSt8_Rb_treeISt4pairIicES0_IKS1_iESt10_Select1stIS3_ESt4lessIS1_ESaIS3_EE29_M_get_insert_hint_unique_posESt23_Rb_tree_const_iteratorIS3_ERS2_+0x372>
  402020:	48 8b 55 a8          	mov    -0x58(%rbp),%rdx
  402024:	48 8b 45 b8          	mov    -0x48(%rbp),%rax
  402028:	48 89 d6             	mov    %rdx,%rsi
  40202b:	48 89 c7             	mov    %rax,%rdi
  40202e:	e8 f7 04 00 00       	callq  40252a <_ZNSt8_Rb_treeISt4pairIicES0_IKS1_iESt10_Select1stIS3_ESt4lessIS1_ESaIS3_EE24_M_get_insert_unique_posERS2_>
  402033:	e9 8e 02 00 00       	jmpq   4022c6 <_ZNSt8_Rb_treeISt4pairIicES0_IKS1_iESt10_Select1stIS3_ESt4lessIS1_ESaIS3_EE29_M_get_insert_hint_unique_posESt23_Rb_tree_const_iteratorIS3_ERS2_+0x372>
  402038:	48 8b 45 c0          	mov    -0x40(%rbp),%rax
  40203c:	48 89 c7             	mov    %rax,%rdi
  40203f:	e8 d3 fd ff ff       	callq  401e17 <_ZNSt8_Rb_treeISt4pairIicES0_IKS1_iESt10_Select1stIS3_ESt4lessIS1_ESaIS3_EE6_S_keyEPKSt18_Rb_tree_node_base>
  402044:	48 89 c2             	mov    %rax,%rdx
  402047:	48 8b 45 b8          	mov    -0x48(%rbp),%rax
  40204b:	48 8b 4d a8          	mov    -0x58(%rbp),%rcx
  40204f:	48 89 ce             	mov    %rcx,%rsi
  402052:	48 89 c7             	mov    %rax,%rdi
  402055:	e8 60 f9 ff ff       	callq  4019ba <_ZNKSt4lessISt4pairIicEEclERKS1_S4_>
  40205a:	84 c0                	test   %al,%al
  40205c:	0f 84 11 01 00 00    	je     402173 <_ZNSt8_Rb_treeISt4pairIicES0_IKS1_iESt10_Select1stIS3_ESt4lessIS1_ESaIS3_EE29_M_get_insert_hint_unique_posESt23_Rb_tree_const_iteratorIS3_ERS2_+0x21f>
  402062:	48 8b 45 c0          	mov    -0x40(%rbp),%rax
  402066:	48 89 45 d0          	mov    %rax,-0x30(%rbp)
  40206a:	48 8b 5d c0          	mov    -0x40(%rbp),%rbx
  40206e:	48 8b 45 b8          	mov    -0x48(%rbp),%rax
  402072:	48 89 c7             	mov    %rax,%rdi
  402075:	e8 3e 06 00 00       	callq  4026b8 <_ZNSt8_Rb_treeISt4pairIicES0_IKS1_iESt10_Select1stIS3_ESt4lessIS1_ESaIS3_EE11_M_leftmostEv>
  40207a:	48 8b 00             	mov    (%rax),%rax
  40207d:	48 39 c3             	cmp    %rax,%rbx
  402080:	0f 94 c0             	sete   %al
  402083:	84 c0                	test   %al,%al
  402085:	74 3d                	je     4020c4 <_ZNSt8_Rb_treeISt4pairIicES0_IKS1_iESt10_Select1stIS3_ESt4lessIS1_ESaIS3_EE29_M_get_insert_hint_unique_posESt23_Rb_tree_const_iteratorIS3_ERS2_+0x170>
  402087:	48 8b 45 b8          	mov    -0x48(%rbp),%rax
  40208b:	48 89 c7             	mov    %rax,%rdi
  40208e:	e8 25 06 00 00       	callq  4026b8 <_ZNSt8_Rb_treeISt4pairIicES0_IKS1_iESt10_Select1stIS3_ESt4lessIS1_ESaIS3_EE11_M_leftmostEv>
  402093:	48 89 c3             	mov    %rax,%rbx
  402096:	48 8b 45 b8          	mov    -0x48(%rbp),%rax
  40209a:	48 89 c7             	mov    %rax,%rdi
  40209d:	e8 16 06 00 00       	callq  4026b8 <_ZNSt8_Rb_treeISt4pairIicES0_IKS1_iESt10_Select1stIS3_ESt4lessIS1_ESaIS3_EE11_M_leftmostEv>
  4020a2:	48 89 c1             	mov    %rax,%rcx
  4020a5:	48 8d 45 e0          	lea    -0x20(%rbp),%rax
  4020a9:	48 89 da             	mov    %rbx,%rdx
  4020ac:	48 89 ce             	mov    %rcx,%rsi
  4020af:	48 89 c7             	mov    %rax,%rdi
  4020b2:	e8 43 04 00 00       	callq  4024fa <_ZNSt4pairIPSt18_Rb_tree_node_baseS1_EC1ERKS1_S4_>
  4020b7:	48 8b 45 e0          	mov    -0x20(%rbp),%rax
  4020bb:	48 8b 55 e8          	mov    -0x18(%rbp),%rdx
  4020bf:	e9 02 02 00 00       	jmpq   4022c6 <_ZNSt8_Rb_treeISt4pairIicES0_IKS1_iESt10_Select1stIS3_ESt4lessIS1_ESaIS3_EE29_M_get_insert_hint_unique_posESt23_Rb_tree_const_iteratorIS3_ERS2_+0x372>
  4020c4:	48 8d 45 d0          	lea    -0x30(%rbp),%rax
  4020c8:	48 89 c7             	mov    %rax,%rdi
  4020cb:	e8 fa 05 00 00       	callq  4026ca <_ZNSt17_Rb_tree_iteratorISt4pairIKS0_IicEiEEmmEv>
  4020d0:	48 8b 00             	mov    (%rax),%rax
  4020d3:	48 89 c7             	mov    %rax,%rdi
  4020d6:	e8 3c fd ff ff       	callq  401e17 <_ZNSt8_Rb_treeISt4pairIicES0_IKS1_iESt10_Select1stIS3_ESt4lessIS1_ESaIS3_EE6_S_keyEPKSt18_Rb_tree_node_base>
  4020db:	48 89 c1             	mov    %rax,%rcx
  4020de:	48 8b 45 b8          	mov    -0x48(%rbp),%rax
  4020e2:	48 8b 55 a8          	mov    -0x58(%rbp),%rdx
  4020e6:	48 89 ce             	mov    %rcx,%rsi
  4020e9:	48 89 c7             	mov    %rax,%rdi
  4020ec:	e8 c9 f8 ff ff       	callq  4019ba <_ZNKSt4lessISt4pairIicEEclERKS1_S4_>
  4020f1:	84 c0                	test   %al,%al
  4020f3:	74 66                	je     40215b <_ZNSt8_Rb_treeISt4pairIicES0_IKS1_iESt10_Select1stIS3_ESt4lessIS1_ESaIS3_EE29_M_get_insert_hint_unique_posESt23_Rb_tree_const_iteratorIS3_ERS2_+0x207>
  4020f5:	48 8b 45 d0          	mov    -0x30(%rbp),%rax
  4020f9:	48 89 c7             	mov    %rax,%rdi
  4020fc:	e8 c3 fd ff ff       	callq  401ec4 <_ZNSt8_Rb_treeISt4pairIicES0_IKS1_iESt10_Select1stIS3_ESt4lessIS1_ESaIS3_EE8_S_rightEPSt18_Rb_tree_node_base>
  402101:	48 85 c0             	test   %rax,%rax
  402104:	0f 94 c0             	sete   %al
  402107:	84 c0                	test   %al,%al
  402109:	74 2c                	je     402137 <_ZNSt8_Rb_treeISt4pairIicES0_IKS1_iESt10_Select1stIS3_ESt4lessIS1_ESaIS3_EE29_M_get_insert_hint_unique_posESt23_Rb_tree_const_iteratorIS3_ERS2_+0x1e3>
  40210b:	48 c7 45 d8 00 00 00 	movq   $0x0,-0x28(%rbp)
  402112:	00 
  402113:	48 8d 55 d0          	lea    -0x30(%rbp),%rdx
  402117:	48 8d 4d d8          	lea    -0x28(%rbp),%rcx
  40211b:	48 8d 45 e0          	lea    -0x20(%rbp),%rax
  40211f:	48 89 ce             	mov    %rcx,%rsi
  402122:	48 89 c7             	mov    %rax,%rdi
  402125:	e8 d0 03 00 00       	callq  4024fa <_ZNSt4pairIPSt18_Rb_tree_node_baseS1_EC1ERKS1_S4_>
  40212a:	48 8b 45 e0          	mov    -0x20(%rbp),%rax
  40212e:	48 8b 55 e8          	mov    -0x18(%rbp),%rdx
  402132:	e9 8f 01 00 00       	jmpq   4022c6 <_ZNSt8_Rb_treeISt4pairIicES0_IKS1_iESt10_Select1stIS3_ESt4lessIS1_ESaIS3_EE29_M_get_insert_hint_unique_posESt23_Rb_tree_const_iteratorIS3_ERS2_+0x372>
  402137:	48 8d 55 c0          	lea    -0x40(%rbp),%rdx
  40213b:	48 8d 4d c0          	lea    -0x40(%rbp),%rcx
  40213f:	48 8d 45 e0          	lea    -0x20(%rbp),%rax
  402143:	48 89 ce             	mov    %rcx,%rsi
  402146:	48 89 c7             	mov    %rax,%rdi
  402149:	e8 ac 03 00 00       	callq  4024fa <_ZNSt4pairIPSt18_Rb_tree_node_baseS1_EC1ERKS1_S4_>
  40214e:	48 8b 45 e0          	mov    -0x20(%rbp),%rax
  402152:	48 8b 55 e8          	mov    -0x18(%rbp),%rdx
  402156:	e9 6b 01 00 00       	jmpq   4022c6 <_ZNSt8_Rb_treeISt4pairIicES0_IKS1_iESt10_Select1stIS3_ESt4lessIS1_ESaIS3_EE29_M_get_insert_hint_unique_posESt23_Rb_tree_const_iteratorIS3_ERS2_+0x372>
  40215b:	48 8b 55 a8          	mov    -0x58(%rbp),%rdx
  40215f:	48 8b 45 b8          	mov    -0x48(%rbp),%rax
  402163:	48 89 d6             	mov    %rdx,%rsi
  402166:	48 89 c7             	mov    %rax,%rdi
  402169:	e8 bc 03 00 00       	callq  40252a <_ZNSt8_Rb_treeISt4pairIicES0_IKS1_iESt10_Select1stIS3_ESt4lessIS1_ESaIS3_EE24_M_get_insert_unique_posERS2_>
  40216e:	e9 53 01 00 00       	jmpq   4022c6 <_ZNSt8_Rb_treeISt4pairIicES0_IKS1_iESt10_Select1stIS3_ESt4lessIS1_ESaIS3_EE29_M_get_insert_hint_unique_posESt23_Rb_tree_const_iteratorIS3_ERS2_+0x372>
  402173:	48 8b 45 c0          	mov    -0x40(%rbp),%rax
  402177:	48 89 c7             	mov    %rax,%rdi
  40217a:	e8 98 fc ff ff       	callq  401e17 <_ZNSt8_Rb_treeISt4pairIicES0_IKS1_iESt10_Select1stIS3_ESt4lessIS1_ESaIS3_EE6_S_keyEPKSt18_Rb_tree_node_base>
  40217f:	48 89 c1             	mov    %rax,%rcx
  402182:	48 8b 45 b8          	mov    -0x48(%rbp),%rax
  402186:	48 8b 55 a8          	mov    -0x58(%rbp),%rdx
  40218a:	48 89 ce             	mov    %rcx,%rsi
  40218d:	48 89 c7             	mov    %rax,%rdi
  402190:	e8 25 f8 ff ff       	callq  4019ba <_ZNKSt4lessISt4pairIicEEclERKS1_S4_>
  402195:	84 c0                	test   %al,%al
  402197:	0f 84 02 01 00 00    	je     40229f <_ZNSt8_Rb_treeISt4pairIicES0_IKS1_iESt10_Select1stIS3_ESt4lessIS1_ESaIS3_EE29_M_get_insert_hint_unique_posESt23_Rb_tree_const_iteratorIS3_ERS2_+0x34b>
  40219d:	48 8b 45 c0          	mov    -0x40(%rbp),%rax
  4021a1:	48 89 45 d0          	mov    %rax,-0x30(%rbp)
  4021a5:	48 8b 5d c0          	mov    -0x40(%rbp),%rbx
  4021a9:	48 8b 45 b8          	mov    -0x48(%rbp),%rax
  4021ad:	48 89 c7             	mov    %rax,%rdi
  4021b0:	e8 21 03 00 00       	callq  4024d6 <_ZNSt8_Rb_treeISt4pairIicES0_IKS1_iESt10_Select1stIS3_ESt4lessIS1_ESaIS3_EE12_M_rightmostEv>
  4021b5:	48 8b 00             	mov    (%rax),%rax
  4021b8:	48 39 c3             	cmp    %rax,%rbx
  4021bb:	0f 94 c0             	sete   %al
  4021be:	84 c0                	test   %al,%al
  4021c0:	74 37                	je     4021f9 <_ZNSt8_Rb_treeISt4pairIicES0_IKS1_iESt10_Select1stIS3_ESt4lessIS1_ESaIS3_EE29_M_get_insert_hint_unique_posESt23_Rb_tree_const_iteratorIS3_ERS2_+0x2a5>
  4021c2:	48 8b 45 b8          	mov    -0x48(%rbp),%rax
  4021c6:	48 89 c7             	mov    %rax,%rdi
  4021c9:	e8 08 03 00 00       	callq  4024d6 <_ZNSt8_Rb_treeISt4pairIicES0_IKS1_iESt10_Select1stIS3_ESt4lessIS1_ESaIS3_EE12_M_rightmostEv>
  4021ce:	48 89 c2             	mov    %rax,%rdx
  4021d1:	48 c7 45 d8 00 00 00 	movq   $0x0,-0x28(%rbp)
  4021d8:	00 
  4021d9:	48 8d 4d d8          	lea    -0x28(%rbp),%rcx
  4021dd:	48 8d 45 e0          	lea    -0x20(%rbp),%rax
  4021e1:	48 89 ce             	mov    %rcx,%rsi
  4021e4:	48 89 c7             	mov    %rax,%rdi
  4021e7:	e8 0e 03 00 00       	callq  4024fa <_ZNSt4pairIPSt18_Rb_tree_node_baseS1_EC1ERKS1_S4_>
  4021ec:	48 8b 45 e0          	mov    -0x20(%rbp),%rax
  4021f0:	48 8b 55 e8          	mov    -0x18(%rbp),%rdx
  4021f4:	e9 cd 00 00 00       	jmpq   4022c6 <_ZNSt8_Rb_treeISt4pairIicES0_IKS1_iESt10_Select1stIS3_ESt4lessIS1_ESaIS3_EE29_M_get_insert_hint_unique_posESt23_Rb_tree_const_iteratorIS3_ERS2_+0x372>
  4021f9:	48 8d 45 d0          	lea    -0x30(%rbp),%rax
  4021fd:	48 89 c7             	mov    %rax,%rdi
  402200:	e8 ed 04 00 00       	callq  4026f2 <_ZNSt17_Rb_tree_iteratorISt4pairIKS0_IicEiEEppEv>
  402205:	48 8b 00             	mov    (%rax),%rax
  402208:	48 89 c7             	mov    %rax,%rdi
  40220b:	e8 07 fc ff ff       	callq  401e17 <_ZNSt8_Rb_treeISt4pairIicES0_IKS1_iESt10_Select1stIS3_ESt4lessIS1_ESaIS3_EE6_S_keyEPKSt18_Rb_tree_node_base>
  402210:	48 89 c2             	mov    %rax,%rdx
  402213:	48 8b 45 b8          	mov    -0x48(%rbp),%rax
  402217:	48 8b 4d a8          	mov    -0x58(%rbp),%rcx
  40221b:	48 89 ce             	mov    %rcx,%rsi
  40221e:	48 89 c7             	mov    %rax,%rdi
  402221:	e8 94 f7 ff ff       	callq  4019ba <_ZNKSt4lessISt4pairIicEEclERKS1_S4_>
  402226:	84 c0                	test   %al,%al
  402228:	74 60                	je     40228a <_ZNSt8_Rb_treeISt4pairIicES0_IKS1_iESt10_Select1stIS3_ESt4lessIS1_ESaIS3_EE29_M_get_insert_hint_unique_posESt23_Rb_tree_const_iteratorIS3_ERS2_+0x336>
  40222a:	48 8b 45 c0          	mov    -0x40(%rbp),%rax
  40222e:	48 89 c7             	mov    %rax,%rdi
  402231:	e8 8e fc ff ff       	callq  401ec4 <_ZNSt8_Rb_treeISt4pairIicES0_IKS1_iESt10_Select1stIS3_ESt4lessIS1_ESaIS3_EE8_S_rightEPSt18_Rb_tree_node_base>
  402236:	48 85 c0             	test   %rax,%rax
  402239:	0f 94 c0             	sete   %al
  40223c:	84 c0                	test   %al,%al
  40223e:	74 29                	je     402269 <_ZNSt8_Rb_treeISt4pairIicES0_IKS1_iESt10_Select1stIS3_ESt4lessIS1_ESaIS3_EE29_M_get_insert_hint_unique_posESt23_Rb_tree_const_iteratorIS3_ERS2_+0x315>
  402240:	48 c7 45 d8 00 00 00 	movq   $0x0,-0x28(%rbp)
  402247:	00 
  402248:	48 8d 55 c0          	lea    -0x40(%rbp),%rdx
  40224c:	48 8d 4d d8          	lea    -0x28(%rbp),%rcx
  402250:	48 8d 45 e0          	lea    -0x20(%rbp),%rax
  402254:	48 89 ce             	mov    %rcx,%rsi
  402257:	48 89 c7             	mov    %rax,%rdi
  40225a:	e8 9b 02 00 00       	callq  4024fa <_ZNSt4pairIPSt18_Rb_tree_node_baseS1_EC1ERKS1_S4_>
  40225f:	48 8b 45 e0          	mov    -0x20(%rbp),%rax
  402263:	48 8b 55 e8          	mov    -0x18(%rbp),%rdx
  402267:	eb 5d                	jmp    4022c6 <_ZNSt8_Rb_treeISt4pairIicES0_IKS1_iESt10_Select1stIS3_ESt4lessIS1_ESaIS3_EE29_M_get_insert_hint_unique_posESt23_Rb_tree_const_iteratorIS3_ERS2_+0x372>
  402269:	48 8d 55 d0          	lea    -0x30(%rbp),%rdx
  40226d:	48 8d 4d d0          	lea    -0x30(%rbp),%rcx
  402271:	48 8d 45 e0          	lea    -0x20(%rbp),%rax
  402275:	48 89 ce             	mov    %rcx,%rsi
  402278:	48 89 c7             	mov    %rax,%rdi
  40227b:	e8 7a 02 00 00       	callq  4024fa <_ZNSt4pairIPSt18_Rb_tree_node_baseS1_EC1ERKS1_S4_>
  402280:	48 8b 45 e0          	mov    -0x20(%rbp),%rax
  402284:	48 8b 55 e8          	mov    -0x18(%rbp),%rdx
  402288:	eb 3c                	jmp    4022c6 <_ZNSt8_Rb_treeISt4pairIicES0_IKS1_iESt10_Select1stIS3_ESt4lessIS1_ESaIS3_EE29_M_get_insert_hint_unique_posESt23_Rb_tree_const_iteratorIS3_ERS2_+0x372>
  40228a:	48 8b 55 a8          	mov    -0x58(%rbp),%rdx
  40228e:	48 8b 45 b8          	mov    -0x48(%rbp),%rax
  402292:	48 89 d6             	mov    %rdx,%rsi
  402295:	48 89 c7             	mov    %rax,%rdi
  402298:	e8 8d 02 00 00       	callq  40252a <_ZNSt8_Rb_treeISt4pairIicES0_IKS1_iESt10_Select1stIS3_ESt4lessIS1_ESaIS3_EE24_M_get_insert_unique_posERS2_>
  40229d:	eb 27                	jmp    4022c6 <_ZNSt8_Rb_treeISt4pairIicES0_IKS1_iESt10_Select1stIS3_ESt4lessIS1_ESaIS3_EE29_M_get_insert_hint_unique_posESt23_Rb_tree_const_iteratorIS3_ERS2_+0x372>
  40229f:	48 c7 45 d8 00 00 00 	movq   $0x0,-0x28(%rbp)
  4022a6:	00 
  4022a7:	48 8d 55 d8          	lea    -0x28(%rbp),%rdx
  4022ab:	48 8d 4d c0          	lea    -0x40(%rbp),%rcx
  4022af:	48 8d 45 e0          	lea    -0x20(%rbp),%rax
  4022b3:	48 89 ce             	mov    %rcx,%rsi
  4022b6:	48 89 c7             	mov    %rax,%rdi
  4022b9:	e8 3c 02 00 00       	callq  4024fa <_ZNSt4pairIPSt18_Rb_tree_node_baseS1_EC1ERKS1_S4_>
  4022be:	48 8b 45 e0          	mov    -0x20(%rbp),%rax
  4022c2:	48 8b 55 e8          	mov    -0x18(%rbp),%rdx
  4022c6:	48 83 c4 58          	add    $0x58,%rsp
  4022ca:	5b                   	pop    %rbx
  4022cb:	5d                   	pop    %rbp
  4022cc:	c3                   	retq   
  4022cd:	90                   	nop

00000000004022ce <_ZNKSt10_Select1stISt4pairIKS0_IicEiEEclERKS3_>:
  4022ce:	55                   	push   %rbp
  4022cf:	48 89 e5             	mov    %rsp,%rbp
  4022d2:	48 89 7d f8          	mov    %rdi,-0x8(%rbp)
  4022d6:	48 89 75 f0          	mov    %rsi,-0x10(%rbp)
  4022da:	48 8b 45 f0          	mov    -0x10(%rbp),%rax
  4022de:	5d                   	pop    %rbp
  4022df:	c3                   	retq   

00000000004022e0 <_ZNSt8_Rb_treeISt4pairIicES0_IKS1_iESt10_Select1stIS3_ESt4lessIS1_ESaIS3_EE10_M_insert_EPSt18_Rb_tree_node_baseSB_RKS3_>:
  4022e0:	55                   	push   %rbp
  4022e1:	48 89 e5             	mov    %rsp,%rbp
  4022e4:	41 54                	push   %r12
  4022e6:	53                   	push   %rbx
  4022e7:	48 83 ec 40          	sub    $0x40,%rsp
  4022eb:	48 89 7d c8          	mov    %rdi,-0x38(%rbp)
  4022ef:	48 89 75 c0          	mov    %rsi,-0x40(%rbp)
  4022f3:	48 89 55 b8          	mov    %rdx,-0x48(%rbp)
  4022f7:	48 89 4d b0          	mov    %rcx,-0x50(%rbp)
  4022fb:	bb 00 00 00 00       	mov    $0x0,%ebx
  402300:	48 83 7d c0 00       	cmpq   $0x0,-0x40(%rbp)
  402305:	75 52                	jne    402359 <_ZNSt8_Rb_treeISt4pairIicES0_IKS1_iESt10_Select1stIS3_ESt4lessIS1_ESaIS3_EE10_M_insert_EPSt18_Rb_tree_node_baseSB_RKS3_+0x79>
  402307:	48 8b 45 c8          	mov    -0x38(%rbp),%rax
  40230b:	48 89 c7             	mov    %rax,%rdi
  40230e:	e8 65 fa ff ff       	callq  401d78 <_ZNSt8_Rb_treeISt4pairIicES0_IKS1_iESt10_Select1stIS3_ESt4lessIS1_ESaIS3_EE6_M_endEv>
  402313:	48 3b 45 b8          	cmp    -0x48(%rbp),%rax
  402317:	74 40                	je     402359 <_ZNSt8_Rb_treeISt4pairIicES0_IKS1_iESt10_Select1stIS3_ESt4lessIS1_ESaIS3_EE10_M_insert_EPSt18_Rb_tree_node_baseSB_RKS3_+0x79>
  402319:	48 8b 45 b8          	mov    -0x48(%rbp),%rax
  40231d:	48 89 c7             	mov    %rax,%rdi
  402320:	e8 f2 fa ff ff       	callq  401e17 <_ZNSt8_Rb_treeISt4pairIicES0_IKS1_iESt10_Select1stIS3_ESt4lessIS1_ESaIS3_EE6_S_keyEPKSt18_Rb_tree_node_base>
  402325:	49 89 c4             	mov    %rax,%r12
  402328:	bb 01 00 00 00       	mov    $0x1,%ebx
  40232d:	48 8b 55 b0          	mov    -0x50(%rbp),%rdx
  402331:	48 8d 45 de          	lea    -0x22(%rbp),%rax
  402335:	48 89 d6             	mov    %rdx,%rsi
  402338:	48 89 c7             	mov    %rax,%rdi
  40233b:	e8 8e ff ff ff       	callq  4022ce <_ZNKSt10_Select1stISt4pairIKS0_IicEiEEclERKS3_>
  402340:	48 89 c1             	mov    %rax,%rcx
  402343:	48 8b 45 c8          	mov    -0x38(%rbp),%rax
  402347:	4c 89 e2             	mov    %r12,%rdx
  40234a:	48 89 ce             	mov    %rcx,%rsi
  40234d:	48 89 c7             	mov    %rax,%rdi
  402350:	e8 65 f6 ff ff       	callq  4019ba <_ZNKSt4lessISt4pairIicEEclERKS1_S4_>
  402355:	84 c0                	test   %al,%al
  402357:	74 07                	je     402360 <_ZNSt8_Rb_treeISt4pairIicES0_IKS1_iESt10_Select1stIS3_ESt4lessIS1_ESaIS3_EE10_M_insert_EPSt18_Rb_tree_node_baseSB_RKS3_+0x80>
  402359:	b8 01 00 00 00       	mov    $0x1,%eax
  40235e:	eb 05                	jmp    402365 <_ZNSt8_Rb_treeISt4pairIicES0_IKS1_iESt10_Select1stIS3_ESt4lessIS1_ESaIS3_EE10_M_insert_EPSt18_Rb_tree_node_baseSB_RKS3_+0x85>
  402360:	b8 00 00 00 00       	mov    $0x0,%eax
  402365:	88 45 df             	mov    %al,-0x21(%rbp)
  402368:	84 db                	test   %bl,%bl
  40236a:	90                   	nop
  40236b:	48 8b 55 b0          	mov    -0x50(%rbp),%rdx
  40236f:	48 8b 45 c8          	mov    -0x38(%rbp),%rax
  402373:	48 89 d6             	mov    %rdx,%rsi
  402376:	48 89 c7             	mov    %rax,%rdi
  402379:	e8 9c 03 00 00       	callq  40271a <_ZNSt8_Rb_treeISt4pairIicES0_IKS1_iESt10_Select1stIS3_ESt4lessIS1_ESaIS3_EE14_M_create_nodeERKS3_>
  40237e:	48 89 45 e8          	mov    %rax,-0x18(%rbp)
  402382:	48 8b 45 c8          	mov    -0x38(%rbp),%rax
  402386:	48 8d 48 08          	lea    0x8(%rax),%rcx
  40238a:	0f b6 45 df          	movzbl -0x21(%rbp),%eax
  40238e:	48 8b 55 b8          	mov    -0x48(%rbp),%rdx
  402392:	48 8b 75 e8          	mov    -0x18(%rbp),%rsi
  402396:	89 c7                	mov    %eax,%edi
  402398:	e8 f3 ea ff ff       	callq  400e90 <_ZSt29_Rb_tree_insert_and_rebalancebPSt18_Rb_tree_node_baseS0_RS_@plt>
  40239d:	48 8b 45 c8          	mov    -0x38(%rbp),%rax
  4023a1:	48 8b 40 28          	mov    0x28(%rax),%rax
  4023a5:	48 8d 50 01          	lea    0x1(%rax),%rdx
  4023a9:	48 8b 45 c8          	mov    -0x38(%rbp),%rax
  4023ad:	48 89 50 28          	mov    %rdx,0x28(%rax)
  4023b1:	48 8b 55 e8          	mov    -0x18(%rbp),%rdx
  4023b5:	48 8d 45 e0          	lea    -0x20(%rbp),%rax
  4023b9:	48 89 d6             	mov    %rdx,%rsi
  4023bc:	48 89 c7             	mov    %rax,%rdi
  4023bf:	e8 80 fa ff ff       	callq  401e44 <_ZNSt17_Rb_tree_iteratorISt4pairIKS0_IicEiEEC1EPSt13_Rb_tree_nodeIS3_E>
  4023c4:	48 8b 45 e0          	mov    -0x20(%rbp),%rax
  4023c8:	48 83 c4 40          	add    $0x40,%rsp
  4023cc:	5b                   	pop    %rbx
  4023cd:	41 5c                	pop    %r12
  4023cf:	5d                   	pop    %rbp
  4023d0:	c3                   	retq   

00000000004023d1 <_ZNSt8_Rb_treeISt4pairIicES0_IKS1_iESt10_Select1stIS3_ESt4lessIS1_ESaIS3_EE6_S_keyEPKSt13_Rb_tree_nodeIS3_E>:
  4023d1:	55                   	push   %rbp
  4023d2:	48 89 e5             	mov    %rsp,%rbp
  4023d5:	48 83 ec 20          	sub    $0x20,%rsp
  4023d9:	48 89 7d e8          	mov    %rdi,-0x18(%rbp)
  4023dd:	48 8b 45 e8          	mov    -0x18(%rbp),%rax
  4023e1:	48 89 c7             	mov    %rax,%rdi
  4023e4:	e8 a2 03 00 00       	callq  40278b <_ZNSt8_Rb_treeISt4pairIicES0_IKS1_iESt10_Select1stIS3_ESt4lessIS1_ESaIS3_EE8_S_valueEPKSt13_Rb_tree_nodeIS3_E>
  4023e9:	48 89 c2             	mov    %rax,%rdx
  4023ec:	48 8d 45 ff          	lea    -0x1(%rbp),%rax
  4023f0:	48 89 d6             	mov    %rdx,%rsi
  4023f3:	48 89 c7             	mov    %rax,%rdi
  4023f6:	e8 d3 fe ff ff       	callq  4022ce <_ZNKSt10_Select1stISt4pairIKS0_IicEiEEclERKS3_>
  4023fb:	c9                   	leaveq 
  4023fc:	c3                   	retq   

00000000004023fd <_ZNSt8_Rb_treeISt4pairIicES0_IKS1_iESt10_Select1stIS3_ESt4lessIS1_ESaIS3_EE8_S_valueEPKSt18_Rb_tree_node_base>:
  4023fd:	55                   	push   %rbp
  4023fe:	48 89 e5             	mov    %rsp,%rbp
  402401:	48 89 7d f8          	mov    %rdi,-0x8(%rbp)
  402405:	48 8b 45 f8          	mov    -0x8(%rbp),%rax
  402409:	48 83 c0 20          	add    $0x20,%rax
  40240d:	5d                   	pop    %rbp
  40240e:	c3                   	retq   
  40240f:	90                   	nop

0000000000402410 <_ZN9__gnu_cxx13new_allocatorISt13_Rb_tree_nodeISt4pairIKS2_IicEiEEEC1Ev>:
  402410:	55                   	push   %rbp
  402411:	48 89 e5             	mov    %rsp,%rbp
  402414:	48 89 7d f8          	mov    %rdi,-0x8(%rbp)
  402418:	5d                   	pop    %rbp
  402419:	c3                   	retq   

000000000040241a <_ZNKSt8_Rb_treeISt4pairIicES0_IKS1_iESt10_Select1stIS3_ESt4lessIS1_ESaIS3_EE13get_allocatorEv>:
  40241a:	55                   	push   %rbp
  40241b:	48 89 e5             	mov    %rsp,%rbp
  40241e:	48 83 ec 10          	sub    $0x10,%rsp
  402422:	48 89 7d f8          	mov    %rdi,-0x8(%rbp)
  402426:	48 89 75 f0          	mov    %rsi,-0x10(%rbp)
  40242a:	48 8b 45 f0          	mov    -0x10(%rbp),%rax
  40242e:	48 89 c7             	mov    %rax,%rdi
  402431:	e8 68 03 00 00       	callq  40279e <_ZNKSt8_Rb_treeISt4pairIicES0_IKS1_iESt10_Select1stIS3_ESt4lessIS1_ESaIS3_EE21_M_get_Node_allocatorEv>
  402436:	48 89 c2             	mov    %rax,%rdx
  402439:	48 8b 45 f8          	mov    -0x8(%rbp),%rax
  40243d:	48 89 d6             	mov    %rdx,%rsi
  402440:	48 89 c7             	mov    %rax,%rdi
  402443:	e8 64 03 00 00       	callq  4027ac <_ZNSaISt4pairIKS_IicEiEEC1ISt13_Rb_tree_nodeIS2_EEERKSaIT_E>
  402448:	48 8b 45 f8          	mov    -0x8(%rbp),%rax
  40244c:	c9                   	leaveq 
  40244d:	c3                   	retq   

000000000040244e <_ZNSaISt4pairIKS_IicEiEED1Ev>:
  40244e:	55                   	push   %rbp
  40244f:	48 89 e5             	mov    %rsp,%rbp
  402452:	48 83 ec 10          	sub    $0x10,%rsp
  402456:	48 89 7d f8          	mov    %rdi,-0x8(%rbp)
  40245a:	48 8b 45 f8          	mov    -0x8(%rbp),%rax
  40245e:	48 89 c7             	mov    %rax,%rdi
  402461:	e8 64 03 00 00       	callq  4027ca <_ZN9__gnu_cxx13new_allocatorISt4pairIKS1_IicEiEED1Ev>
  402466:	c9                   	leaveq 
  402467:	c3                   	retq   

0000000000402468 <_ZSt11__addressofISt4pairIKS0_IicEiEEPT_RS4_>:
  402468:	55                   	push   %rbp
  402469:	48 89 e5             	mov    %rsp,%rbp
  40246c:	48 89 7d f8          	mov    %rdi,-0x8(%rbp)
  402470:	48 8b 45 f8          	mov    -0x8(%rbp),%rax
  402474:	5d                   	pop    %rbp
  402475:	c3                   	retq   

0000000000402476 <_ZN9__gnu_cxx13new_allocatorISt4pairIKS1_IicEiEE7destroyEPS4_>:
  402476:	55                   	push   %rbp
  402477:	48 89 e5             	mov    %rsp,%rbp
  40247a:	48 89 7d f8          	mov    %rdi,-0x8(%rbp)
  40247e:	48 89 75 f0          	mov    %rsi,-0x10(%rbp)
  402482:	5d                   	pop    %rbp
  402483:	c3                   	retq   

0000000000402484 <_ZNSt8_Rb_treeISt4pairIicES0_IKS1_iESt10_Select1stIS3_ESt4lessIS1_ESaIS3_EE11_M_put_nodeEPSt13_Rb_tree_nodeIS3_E>:
  402484:	55                   	push   %rbp
  402485:	48 89 e5             	mov    %rsp,%rbp
  402488:	48 83 ec 10          	sub    $0x10,%rsp
  40248c:	48 89 7d f8          	mov    %rdi,-0x8(%rbp)
  402490:	48 89 75 f0          	mov    %rsi,-0x10(%rbp)
  402494:	48 8b 45 f8          	mov    -0x8(%rbp),%rax
  402498:	48 8b 4d f0          	mov    -0x10(%rbp),%rcx
  40249c:	ba 01 00 00 00       	mov    $0x1,%edx
  4024a1:	48 89 ce             	mov    %rcx,%rsi
  4024a4:	48 89 c7             	mov    %rax,%rdi
  4024a7:	e8 28 03 00 00       	callq  4027d4 <_ZN9__gnu_cxx13new_allocatorISt13_Rb_tree_nodeISt4pairIKS2_IicEiEEE10deallocateEPS6_m>
  4024ac:	c9                   	leaveq 
  4024ad:	c3                   	retq   

00000000004024ae <_ZNKSt23_Rb_tree_const_iteratorISt4pairIKS0_IicEiEE13_M_const_castEv>:
  4024ae:	55                   	push   %rbp
  4024af:	48 89 e5             	mov    %rsp,%rbp
  4024b2:	48 83 ec 20          	sub    $0x20,%rsp
  4024b6:	48 89 7d e8          	mov    %rdi,-0x18(%rbp)
  4024ba:	48 8b 45 e8          	mov    -0x18(%rbp),%rax
  4024be:	48 8b 10             	mov    (%rax),%rdx
  4024c1:	48 8d 45 f0          	lea    -0x10(%rbp),%rax
  4024c5:	48 89 d6             	mov    %rdx,%rsi
  4024c8:	48 89 c7             	mov    %rax,%rdi
  4024cb:	e8 74 f9 ff ff       	callq  401e44 <_ZNSt17_Rb_tree_iteratorISt4pairIKS0_IicEiEEC1EPSt13_Rb_tree_nodeIS3_E>
  4024d0:	48 8b 45 f0          	mov    -0x10(%rbp),%rax
  4024d4:	c9                   	leaveq 
  4024d5:	c3                   	retq   

00000000004024d6 <_ZNSt8_Rb_treeISt4pairIicES0_IKS1_iESt10_Select1stIS3_ESt4lessIS1_ESaIS3_EE12_M_rightmostEv>:
  4024d6:	55                   	push   %rbp
  4024d7:	48 89 e5             	mov    %rsp,%rbp
  4024da:	48 89 7d f8          	mov    %rdi,-0x8(%rbp)
  4024de:	48 8b 45 f8          	mov    -0x8(%rbp),%rax
  4024e2:	48 83 c0 20          	add    $0x20,%rax
  4024e6:	5d                   	pop    %rbp
  4024e7:	c3                   	retq   

00000000004024e8 <_ZNKSt8_Rb_treeISt4pairIicES0_IKS1_iESt10_Select1stIS3_ESt4lessIS1_ESaIS3_EE4sizeEv>:
  4024e8:	55                   	push   %rbp
  4024e9:	48 89 e5             	mov    %rsp,%rbp
  4024ec:	48 89 7d f8          	mov    %rdi,-0x8(%rbp)
  4024f0:	48 8b 45 f8          	mov    -0x8(%rbp),%rax
  4024f4:	48 8b 40 28          	mov    0x28(%rax),%rax
  4024f8:	5d                   	pop    %rbp
  4024f9:	c3                   	retq   

00000000004024fa <_ZNSt4pairIPSt18_Rb_tree_node_baseS1_EC1ERKS1_S4_>:
  4024fa:	55                   	push   %rbp
  4024fb:	48 89 e5             	mov    %rsp,%rbp
  4024fe:	48 89 7d f8          	mov    %rdi,-0x8(%rbp)
  402502:	48 89 75 f0          	mov    %rsi,-0x10(%rbp)
  402506:	48 89 55 e8          	mov    %rdx,-0x18(%rbp)
  40250a:	48 8b 45 f0          	mov    -0x10(%rbp),%rax
  40250e:	48 8b 10             	mov    (%rax),%rdx
  402511:	48 8b 45 f8          	mov    -0x8(%rbp),%rax
  402515:	48 89 10             	mov    %rdx,(%rax)
  402518:	48 8b 45 e8          	mov    -0x18(%rbp),%rax
  40251c:	48 8b 10             	mov    (%rax),%rdx
  40251f:	48 8b 45 f8          	mov    -0x8(%rbp),%rax
  402523:	48 89 50 08          	mov    %rdx,0x8(%rax)
  402527:	5d                   	pop    %rbp
  402528:	c3                   	retq   
  402529:	90                   	nop

000000000040252a <_ZNSt8_Rb_treeISt4pairIicES0_IKS1_iESt10_Select1stIS3_ESt4lessIS1_ESaIS3_EE24_M_get_insert_unique_posERS2_>:
  40252a:	55                   	push   %rbp
  40252b:	48 89 e5             	mov    %rsp,%rbp
  40252e:	48 83 ec 60          	sub    $0x60,%rsp
  402532:	48 89 7d a8          	mov    %rdi,-0x58(%rbp)
  402536:	48 89 75 a0          	mov    %rsi,-0x60(%rbp)
  40253a:	48 8b 45 a8          	mov    -0x58(%rbp),%rax
  40253e:	48 89 c7             	mov    %rax,%rdi
  402541:	e8 de f6 ff ff       	callq  401c24 <_ZNSt8_Rb_treeISt4pairIicES0_IKS1_iESt10_Select1stIS3_ESt4lessIS1_ESaIS3_EE8_M_beginEv>
  402546:	48 89 45 e0          	mov    %rax,-0x20(%rbp)
  40254a:	48 8b 45 a8          	mov    -0x58(%rbp),%rax
  40254e:	48 89 c7             	mov    %rax,%rdi
  402551:	e8 22 f8 ff ff       	callq  401d78 <_ZNSt8_Rb_treeISt4pairIicES0_IKS1_iESt10_Select1stIS3_ESt4lessIS1_ESaIS3_EE6_M_endEv>
  402556:	48 89 45 e8          	mov    %rax,-0x18(%rbp)
  40255a:	c6 45 bf 01          	movb   $0x1,-0x41(%rbp)
  40255e:	eb 51                	jmp    4025b1 <_ZNSt8_Rb_treeISt4pairIicES0_IKS1_iESt10_Select1stIS3_ESt4lessIS1_ESaIS3_EE24_M_get_insert_unique_posERS2_+0x87>
  402560:	48 8b 45 e0          	mov    -0x20(%rbp),%rax
  402564:	48 89 45 e8          	mov    %rax,-0x18(%rbp)
  402568:	48 8b 45 e0          	mov    -0x20(%rbp),%rax
  40256c:	48 89 c7             	mov    %rax,%rdi
  40256f:	e8 5d fe ff ff       	callq  4023d1 <_ZNSt8_Rb_treeISt4pairIicES0_IKS1_iESt10_Select1stIS3_ESt4lessIS1_ESaIS3_EE6_S_keyEPKSt13_Rb_tree_nodeIS3_E>
  402574:	48 89 c2             	mov    %rax,%rdx
  402577:	48 8b 45 a8          	mov    -0x58(%rbp),%rax
  40257b:	48 8b 4d a0          	mov    -0x60(%rbp),%rcx
  40257f:	48 89 ce             	mov    %rcx,%rsi
  402582:	48 89 c7             	mov    %rax,%rdi
  402585:	e8 30 f4 ff ff       	callq  4019ba <_ZNKSt4lessISt4pairIicEEclERKS1_S4_>
  40258a:	88 45 bf             	mov    %al,-0x41(%rbp)
  40258d:	80 7d bf 00          	cmpb   $0x0,-0x41(%rbp)
  402591:	74 0e                	je     4025a1 <_ZNSt8_Rb_treeISt4pairIicES0_IKS1_iESt10_Select1stIS3_ESt4lessIS1_ESaIS3_EE24_M_get_insert_unique_posERS2_+0x77>
  402593:	48 8b 45 e0          	mov    -0x20(%rbp),%rax
  402597:	48 89 c7             	mov    %rax,%rdi
  40259a:	e8 37 f9 ff ff       	callq  401ed6 <_ZNSt8_Rb_treeISt4pairIicES0_IKS1_iESt10_Select1stIS3_ESt4lessIS1_ESaIS3_EE7_S_leftEPSt18_Rb_tree_node_base>
  40259f:	eb 0c                	jmp    4025ad <_ZNSt8_Rb_treeISt4pairIicES0_IKS1_iESt10_Select1stIS3_ESt4lessIS1_ESaIS3_EE24_M_get_insert_unique_posERS2_+0x83>
  4025a1:	48 8b 45 e0          	mov    -0x20(%rbp),%rax
  4025a5:	48 89 c7             	mov    %rax,%rdi
  4025a8:	e8 17 f9 ff ff       	callq  401ec4 <_ZNSt8_Rb_treeISt4pairIicES0_IKS1_iESt10_Select1stIS3_ESt4lessIS1_ESaIS3_EE8_S_rightEPSt18_Rb_tree_node_base>
  4025ad:	48 89 45 e0          	mov    %rax,-0x20(%rbp)
  4025b1:	48 83 7d e0 00       	cmpq   $0x0,-0x20(%rbp)
  4025b6:	75 a8                	jne    402560 <_ZNSt8_Rb_treeISt4pairIicES0_IKS1_iESt10_Select1stIS3_ESt4lessIS1_ESaIS3_EE24_M_get_insert_unique_posERS2_+0x36>
  4025b8:	48 8b 55 e8          	mov    -0x18(%rbp),%rdx
  4025bc:	48 8d 45 c0          	lea    -0x40(%rbp),%rax
  4025c0:	48 89 d6             	mov    %rdx,%rsi
  4025c3:	48 89 c7             	mov    %rax,%rdi
  4025c6:	e8 79 f8 ff ff       	callq  401e44 <_ZNSt17_Rb_tree_iteratorISt4pairIKS0_IicEiEEC1EPSt13_Rb_tree_nodeIS3_E>
  4025cb:	80 7d bf 00          	cmpb   $0x0,-0x41(%rbp)
  4025cf:	74 67                	je     402638 <_ZNSt8_Rb_treeISt4pairIicES0_IKS1_iESt10_Select1stIS3_ESt4lessIS1_ESaIS3_EE24_M_get_insert_unique_posERS2_+0x10e>
  4025d1:	48 8b 45 a8          	mov    -0x58(%rbp),%rax
  4025d5:	48 89 c7             	mov    %rax,%rdi
  4025d8:	e8 19 02 00 00       	callq  4027f6 <_ZNSt8_Rb_treeISt4pairIicES0_IKS1_iESt10_Select1stIS3_ESt4lessIS1_ESaIS3_EE5beginEv>
  4025dd:	48 89 45 f0          	mov    %rax,-0x10(%rbp)
  4025e1:	48 8d 55 f0          	lea    -0x10(%rbp),%rdx
  4025e5:	48 8d 45 c0          	lea    -0x40(%rbp),%rax
  4025e9:	48 89 d6             	mov    %rdx,%rsi
  4025ec:	48 89 c7             	mov    %rax,%rdi
  4025ef:	e8 52 f2 ff ff       	callq  401846 <_ZNKSt17_Rb_tree_iteratorISt4pairIKS0_IicEiEEeqERKS4_>
  4025f4:	84 c0                	test   %al,%al
  4025f6:	74 34                	je     40262c <_ZNSt8_Rb_treeISt4pairIicES0_IKS1_iESt10_Select1stIS3_ESt4lessIS1_ESaIS3_EE24_M_get_insert_unique_posERS2_+0x102>
  4025f8:	48 8b 45 e8          	mov    -0x18(%rbp),%rax
  4025fc:	48 89 45 d8          	mov    %rax,-0x28(%rbp)
  402600:	48 8b 45 e0          	mov    -0x20(%rbp),%rax
  402604:	48 89 45 d0          	mov    %rax,-0x30(%rbp)
  402608:	48 8d 55 d8          	lea    -0x28(%rbp),%rdx
  40260c:	48 8d 4d d0          	lea    -0x30(%rbp),%rcx
  402610:	48 8d 45 f0          	lea    -0x10(%rbp),%rax
  402614:	48 89 ce             	mov    %rcx,%rsi
  402617:	48 89 c7             	mov    %rax,%rdi
  40261a:	e8 db fe ff ff       	callq  4024fa <_ZNSt4pairIPSt18_Rb_tree_node_baseS1_EC1ERKS1_S4_>
  40261f:	48 8b 45 f0          	mov    -0x10(%rbp),%rax
  402623:	48 8b 55 f8          	mov    -0x8(%rbp),%rdx
  402627:	e9 8a 00 00 00       	jmpq   4026b6 <_ZNSt8_Rb_treeISt4pairIicES0_IKS1_iESt10_Select1stIS3_ESt4lessIS1_ESaIS3_EE24_M_get_insert_unique_posERS2_+0x18c>
  40262c:	48 8d 45 c0          	lea    -0x40(%rbp),%rax
  402630:	48 89 c7             	mov    %rax,%rdi
  402633:	e8 92 00 00 00       	callq  4026ca <_ZNSt17_Rb_tree_iteratorISt4pairIKS0_IicEiEEmmEv>
  402638:	48 8b 45 c0          	mov    -0x40(%rbp),%rax
  40263c:	48 89 c7             	mov    %rax,%rdi
  40263f:	e8 d3 f7 ff ff       	callq  401e17 <_ZNSt8_Rb_treeISt4pairIicES0_IKS1_iESt10_Select1stIS3_ESt4lessIS1_ESaIS3_EE6_S_keyEPKSt18_Rb_tree_node_base>
  402644:	48 89 c1             	mov    %rax,%rcx
  402647:	48 8b 45 a8          	mov    -0x58(%rbp),%rax
  40264b:	48 8b 55 a0          	mov    -0x60(%rbp),%rdx
  40264f:	48 89 ce             	mov    %rcx,%rsi
  402652:	48 89 c7             	mov    %rax,%rdi
  402655:	e8 60 f3 ff ff       	callq  4019ba <_ZNKSt4lessISt4pairIicEEclERKS1_S4_>
  40265a:	84 c0                	test   %al,%al
  40265c:	74 31                	je     40268f <_ZNSt8_Rb_treeISt4pairIicES0_IKS1_iESt10_Select1stIS3_ESt4lessIS1_ESaIS3_EE24_M_get_insert_unique_posERS2_+0x165>
  40265e:	48 8b 45 e8          	mov    -0x18(%rbp),%rax
  402662:	48 89 45 d8          	mov    %rax,-0x28(%rbp)
  402666:	48 8b 45 e0          	mov    -0x20(%rbp),%rax
  40266a:	48 89 45 d0          	mov    %rax,-0x30(%rbp)
  40266e:	48 8d 55 d8          	lea    -0x28(%rbp),%rdx
  402672:	48 8d 4d d0          	lea    -0x30(%rbp),%rcx
  402676:	48 8d 45 f0          	lea    -0x10(%rbp),%rax
  40267a:	48 89 ce             	mov    %rcx,%rsi
  40267d:	48 89 c7             	mov    %rax,%rdi
  402680:	e8 75 fe ff ff       	callq  4024fa <_ZNSt4pairIPSt18_Rb_tree_node_baseS1_EC1ERKS1_S4_>
  402685:	48 8b 45 f0          	mov    -0x10(%rbp),%rax
  402689:	48 8b 55 f8          	mov    -0x8(%rbp),%rdx
  40268d:	eb 27                	jmp    4026b6 <_ZNSt8_Rb_treeISt4pairIicES0_IKS1_iESt10_Select1stIS3_ESt4lessIS1_ESaIS3_EE24_M_get_insert_unique_posERS2_+0x18c>
  40268f:	48 c7 45 d8 00 00 00 	movq   $0x0,-0x28(%rbp)
  402696:	00 
  402697:	48 8d 55 d8          	lea    -0x28(%rbp),%rdx
  40269b:	48 8d 4d c0          	lea    -0x40(%rbp),%rcx
  40269f:	48 8d 45 f0          	lea    -0x10(%rbp),%rax
  4026a3:	48 89 ce             	mov    %rcx,%rsi
  4026a6:	48 89 c7             	mov    %rax,%rdi
  4026a9:	e8 4c fe ff ff       	callq  4024fa <_ZNSt4pairIPSt18_Rb_tree_node_baseS1_EC1ERKS1_S4_>
  4026ae:	48 8b 45 f0          	mov    -0x10(%rbp),%rax
  4026b2:	48 8b 55 f8          	mov    -0x8(%rbp),%rdx
  4026b6:	c9                   	leaveq 
  4026b7:	c3                   	retq   

00000000004026b8 <_ZNSt8_Rb_treeISt4pairIicES0_IKS1_iESt10_Select1stIS3_ESt4lessIS1_ESaIS3_EE11_M_leftmostEv>:
  4026b8:	55                   	push   %rbp
  4026b9:	48 89 e5             	mov    %rsp,%rbp
  4026bc:	48 89 7d f8          	mov    %rdi,-0x8(%rbp)
  4026c0:	48 8b 45 f8          	mov    -0x8(%rbp),%rax
  4026c4:	48 83 c0 18          	add    $0x18,%rax
  4026c8:	5d                   	pop    %rbp
  4026c9:	c3                   	retq   

00000000004026ca <_ZNSt17_Rb_tree_iteratorISt4pairIKS0_IicEiEEmmEv>:
  4026ca:	55                   	push   %rbp
  4026cb:	48 89 e5             	mov    %rsp,%rbp
  4026ce:	48 83 ec 10          	sub    $0x10,%rsp
  4026d2:	48 89 7d f8          	mov    %rdi,-0x8(%rbp)
  4026d6:	48 8b 45 f8          	mov    -0x8(%rbp),%rax
  4026da:	48 8b 00             	mov    (%rax),%rax
  4026dd:	48 89 c7             	mov    %rax,%rdi
  4026e0:	e8 0b e7 ff ff       	callq  400df0 <_ZSt18_Rb_tree_decrementPSt18_Rb_tree_node_base@plt>
  4026e5:	48 8b 55 f8          	mov    -0x8(%rbp),%rdx
  4026e9:	48 89 02             	mov    %rax,(%rdx)
  4026ec:	48 8b 45 f8          	mov    -0x8(%rbp),%rax
  4026f0:	c9                   	leaveq 
  4026f1:	c3                   	retq   

00000000004026f2 <_ZNSt17_Rb_tree_iteratorISt4pairIKS0_IicEiEEppEv>:
  4026f2:	55                   	push   %rbp
  4026f3:	48 89 e5             	mov    %rsp,%rbp
  4026f6:	48 83 ec 10          	sub    $0x10,%rsp
  4026fa:	48 89 7d f8          	mov    %rdi,-0x8(%rbp)
  4026fe:	48 8b 45 f8          	mov    -0x8(%rbp),%rax
  402702:	48 8b 00             	mov    (%rax),%rax
  402705:	48 89 c7             	mov    %rax,%rdi
  402708:	e8 d3 e7 ff ff       	callq  400ee0 <_ZSt18_Rb_tree_incrementPSt18_Rb_tree_node_base@plt>
  40270d:	48 8b 55 f8          	mov    -0x8(%rbp),%rdx
  402711:	48 89 02             	mov    %rax,(%rdx)
  402714:	48 8b 45 f8          	mov    -0x8(%rbp),%rax
  402718:	c9                   	leaveq 
  402719:	c3                   	retq   

000000000040271a <_ZNSt8_Rb_treeISt4pairIicES0_IKS1_iESt10_Select1stIS3_ESt4lessIS1_ESaIS3_EE14_M_create_nodeERKS3_>:
  40271a:	55                   	push   %rbp
  40271b:	48 89 e5             	mov    %rsp,%rbp
  40271e:	53                   	push   %rbx
  40271f:	48 83 ec 28          	sub    $0x28,%rsp
  402723:	48 89 7d d8          	mov    %rdi,-0x28(%rbp)
  402727:	48 89 75 d0          	mov    %rsi,-0x30(%rbp)
  40272b:	48 8b 45 d8          	mov    -0x28(%rbp),%rax
  40272f:	48 89 c7             	mov    %rax,%rdi
  402732:	e8 e9 00 00 00       	callq  402820 <_ZNSt8_Rb_treeISt4pairIicES0_IKS1_iESt10_Select1stIS3_ESt4lessIS1_ESaIS3_EE11_M_get_nodeEv>
  402737:	48 89 45 e8          	mov    %rax,-0x18(%rbp)
  40273b:	48 8b 45 e8          	mov    -0x18(%rbp),%rax
  40273f:	48 83 c0 20          	add    $0x20,%rax
  402743:	48 89 c7             	mov    %rax,%rdi
  402746:	e8 1d fd ff ff       	callq  402468 <_ZSt11__addressofISt4pairIKS0_IicEiEEPT_RS4_>
  40274b:	48 89 c3             	mov    %rax,%rbx
  40274e:	48 8d 45 e7          	lea    -0x19(%rbp),%rax
  402752:	48 8b 55 d8          	mov    -0x28(%rbp),%rdx
  402756:	48 89 d6             	mov    %rdx,%rsi
  402759:	48 89 c7             	mov    %rax,%rdi
  40275c:	e8 b9 fc ff ff       	callq  40241a <_ZNKSt8_Rb_treeISt4pairIicES0_IKS1_iESt10_Select1stIS3_ESt4lessIS1_ESaIS3_EE13get_allocatorEv>
  402761:	48 8b 55 d0          	mov    -0x30(%rbp),%rdx
  402765:	48 8d 45 e7          	lea    -0x19(%rbp),%rax
  402769:	48 89 de             	mov    %rbx,%rsi
  40276c:	48 89 c7             	mov    %rax,%rdi
  40276f:	e8 d0 00 00 00       	callq  402844 <_ZN9__gnu_cxx13new_allocatorISt4pairIKS1_IicEiEE9constructEPS4_RKS4_>
  402774:	48 8d 45 e7          	lea    -0x19(%rbp),%rax
  402778:	48 89 c7             	mov    %rax,%rdi
  40277b:	e8 ce fc ff ff       	callq  40244e <_ZNSaISt4pairIKS_IicEiEED1Ev>
  402780:	48 8b 45 e8          	mov    -0x18(%rbp),%rax
  402784:	48 83 c4 28          	add    $0x28,%rsp
  402788:	5b                   	pop    %rbx
  402789:	5d                   	pop    %rbp
  40278a:	c3                   	retq   

000000000040278b <_ZNSt8_Rb_treeISt4pairIicES0_IKS1_iESt10_Select1stIS3_ESt4lessIS1_ESaIS3_EE8_S_valueEPKSt13_Rb_tree_nodeIS3_E>:
  40278b:	55                   	push   %rbp
  40278c:	48 89 e5             	mov    %rsp,%rbp
  40278f:	48 89 7d f8          	mov    %rdi,-0x8(%rbp)
  402793:	48 8b 45 f8          	mov    -0x8(%rbp),%rax
  402797:	48 83 c0 20          	add    $0x20,%rax
  40279b:	5d                   	pop    %rbp
  40279c:	c3                   	retq   
  40279d:	90                   	nop

000000000040279e <_ZNKSt8_Rb_treeISt4pairIicES0_IKS1_iESt10_Select1stIS3_ESt4lessIS1_ESaIS3_EE21_M_get_Node_allocatorEv>:
  40279e:	55                   	push   %rbp
  40279f:	48 89 e5             	mov    %rsp,%rbp
  4027a2:	48 89 7d f8          	mov    %rdi,-0x8(%rbp)
  4027a6:	48 8b 45 f8          	mov    -0x8(%rbp),%rax
  4027aa:	5d                   	pop    %rbp
  4027ab:	c3                   	retq   

00000000004027ac <_ZNSaISt4pairIKS_IicEiEEC1ISt13_Rb_tree_nodeIS2_EEERKSaIT_E>:
  4027ac:	55                   	push   %rbp
  4027ad:	48 89 e5             	mov    %rsp,%rbp
  4027b0:	48 83 ec 10          	sub    $0x10,%rsp
  4027b4:	48 89 7d f8          	mov    %rdi,-0x8(%rbp)
  4027b8:	48 89 75 f0          	mov    %rsi,-0x10(%rbp)
  4027bc:	48 8b 45 f8          	mov    -0x8(%rbp),%rax
  4027c0:	48 89 c7             	mov    %rax,%rdi
  4027c3:	e8 b8 00 00 00       	callq  402880 <_ZN9__gnu_cxx13new_allocatorISt4pairIKS1_IicEiEEC1Ev>
  4027c8:	c9                   	leaveq 
  4027c9:	c3                   	retq   

00000000004027ca <_ZN9__gnu_cxx13new_allocatorISt4pairIKS1_IicEiEED1Ev>:
  4027ca:	55                   	push   %rbp
  4027cb:	48 89 e5             	mov    %rsp,%rbp
  4027ce:	48 89 7d f8          	mov    %rdi,-0x8(%rbp)
  4027d2:	5d                   	pop    %rbp
  4027d3:	c3                   	retq   

00000000004027d4 <_ZN9__gnu_cxx13new_allocatorISt13_Rb_tree_nodeISt4pairIKS2_IicEiEEE10deallocateEPS6_m>:
  4027d4:	55                   	push   %rbp
  4027d5:	48 89 e5             	mov    %rsp,%rbp
  4027d8:	48 83 ec 20          	sub    $0x20,%rsp
  4027dc:	48 89 7d f8          	mov    %rdi,-0x8(%rbp)
  4027e0:	48 89 75 f0          	mov    %rsi,-0x10(%rbp)
  4027e4:	48 89 55 e8          	mov    %rdx,-0x18(%rbp)
  4027e8:	48 8b 45 f0          	mov    -0x10(%rbp),%rax
  4027ec:	48 89 c7             	mov    %rax,%rdi
  4027ef:	e8 bc e5 ff ff       	callq  400db0 <_ZdlPv@plt>
  4027f4:	c9                   	leaveq 
  4027f5:	c3                   	retq   

00000000004027f6 <_ZNSt8_Rb_treeISt4pairIicES0_IKS1_iESt10_Select1stIS3_ESt4lessIS1_ESaIS3_EE5beginEv>:
  4027f6:	55                   	push   %rbp
  4027f7:	48 89 e5             	mov    %rsp,%rbp
  4027fa:	48 83 ec 20          	sub    $0x20,%rsp
  4027fe:	48 89 7d e8          	mov    %rdi,-0x18(%rbp)
  402802:	48 8b 45 e8          	mov    -0x18(%rbp),%rax
  402806:	48 8b 50 18          	mov    0x18(%rax),%rdx
  40280a:	48 8d 45 f0          	lea    -0x10(%rbp),%rax
  40280e:	48 89 d6             	mov    %rdx,%rsi
  402811:	48 89 c7             	mov    %rax,%rdi
  402814:	e8 2b f6 ff ff       	callq  401e44 <_ZNSt17_Rb_tree_iteratorISt4pairIKS0_IicEiEEC1EPSt13_Rb_tree_nodeIS3_E>
  402819:	48 8b 45 f0          	mov    -0x10(%rbp),%rax
  40281d:	c9                   	leaveq 
  40281e:	c3                   	retq   
  40281f:	90                   	nop

0000000000402820 <_ZNSt8_Rb_treeISt4pairIicES0_IKS1_iESt10_Select1stIS3_ESt4lessIS1_ESaIS3_EE11_M_get_nodeEv>:
  402820:	55                   	push   %rbp
  402821:	48 89 e5             	mov    %rsp,%rbp
  402824:	48 83 ec 10          	sub    $0x10,%rsp
  402828:	48 89 7d f8          	mov    %rdi,-0x8(%rbp)
  40282c:	48 8b 45 f8          	mov    -0x8(%rbp),%rax
  402830:	ba 00 00 00 00       	mov    $0x0,%edx
  402835:	be 01 00 00 00       	mov    $0x1,%esi
  40283a:	48 89 c7             	mov    %rax,%rdi
  40283d:	e8 48 00 00 00       	callq  40288a <_ZN9__gnu_cxx13new_allocatorISt13_Rb_tree_nodeISt4pairIKS2_IicEiEEE8allocateEmPKv>
  402842:	c9                   	leaveq 
  402843:	c3                   	retq   

0000000000402844 <_ZN9__gnu_cxx13new_allocatorISt4pairIKS1_IicEiEE9constructEPS4_RKS4_>:
  402844:	55                   	push   %rbp
  402845:	48 89 e5             	mov    %rsp,%rbp
  402848:	48 83 ec 20          	sub    $0x20,%rsp
  40284c:	48 89 7d f8          	mov    %rdi,-0x8(%rbp)
  402850:	48 89 75 f0          	mov    %rsi,-0x10(%rbp)
  402854:	48 89 55 e8          	mov    %rdx,-0x18(%rbp)
  402858:	48 8b 45 f0          	mov    -0x10(%rbp),%rax
  40285c:	48 89 c6             	mov    %rax,%rsi
  40285f:	bf 0c 00 00 00       	mov    $0xc,%edi
  402864:	e8 2d ee ff ff       	callq  401696 <_ZnwmPv>
  402869:	48 85 c0             	test   %rax,%rax
  40286c:	74 10                	je     40287e <_ZN9__gnu_cxx13new_allocatorISt4pairIKS1_IicEiEE9constructEPS4_RKS4_+0x3a>
  40286e:	48 8b 55 e8          	mov    -0x18(%rbp),%rdx
  402872:	48 8b 0a             	mov    (%rdx),%rcx
  402875:	48 89 08             	mov    %rcx,(%rax)
  402878:	8b 52 08             	mov    0x8(%rdx),%edx
  40287b:	89 50 08             	mov    %edx,0x8(%rax)
  40287e:	c9                   	leaveq 
  40287f:	c3                   	retq   

0000000000402880 <_ZN9__gnu_cxx13new_allocatorISt4pairIKS1_IicEiEEC1Ev>:
  402880:	55                   	push   %rbp
  402881:	48 89 e5             	mov    %rsp,%rbp
  402884:	48 89 7d f8          	mov    %rdi,-0x8(%rbp)
  402888:	5d                   	pop    %rbp
  402889:	c3                   	retq   

000000000040288a <_ZN9__gnu_cxx13new_allocatorISt13_Rb_tree_nodeISt4pairIKS2_IicEiEEE8allocateEmPKv>:
  40288a:	55                   	push   %rbp
  40288b:	48 89 e5             	mov    %rsp,%rbp
  40288e:	48 83 ec 20          	sub    $0x20,%rsp
  402892:	48 89 7d f8          	mov    %rdi,-0x8(%rbp)
  402896:	48 89 75 f0          	mov    %rsi,-0x10(%rbp)
  40289a:	48 89 55 e8          	mov    %rdx,-0x18(%rbp)
  40289e:	48 8b 45 f8          	mov    -0x8(%rbp),%rax
  4028a2:	48 89 c7             	mov    %rax,%rdi
  4028a5:	e8 2c 00 00 00       	callq  4028d6 <_ZNK9__gnu_cxx13new_allocatorISt13_Rb_tree_nodeISt4pairIKS2_IicEiEEE8max_sizeEv>
  4028aa:	48 3b 45 f0          	cmp    -0x10(%rbp),%rax
  4028ae:	0f 92 c0             	setb   %al
  4028b1:	84 c0                	test   %al,%al
  4028b3:	74 05                	je     4028ba <_ZN9__gnu_cxx13new_allocatorISt13_Rb_tree_nodeISt4pairIKS2_IicEiEEE8allocateEmPKv+0x30>
  4028b5:	e8 36 e6 ff ff       	callq  400ef0 <_ZSt17__throw_bad_allocv@plt>
  4028ba:	48 8b 55 f0          	mov    -0x10(%rbp),%rdx
  4028be:	48 89 d0             	mov    %rdx,%rax
  4028c1:	48 01 c0             	add    %rax,%rax
  4028c4:	48 01 d0             	add    %rdx,%rax
  4028c7:	48 c1 e0 04          	shl    $0x4,%rax
  4028cb:	48 89 c7             	mov    %rax,%rdi
  4028ce:	e8 5d e6 ff ff       	callq  400f30 <_Znwm@plt>
  4028d3:	c9                   	leaveq 
  4028d4:	c3                   	retq   
  4028d5:	90                   	nop

00000000004028d6 <_ZNK9__gnu_cxx13new_allocatorISt13_Rb_tree_nodeISt4pairIKS2_IicEiEEE8max_sizeEv>:
  4028d6:	55                   	push   %rbp
  4028d7:	48 89 e5             	mov    %rsp,%rbp
  4028da:	48 89 7d f8          	mov    %rdi,-0x8(%rbp)
  4028de:	48 b8 55 55 55 55 55 	movabs $0x555555555555555,%rax
  4028e5:	55 55 05 
  4028e8:	5d                   	pop    %rbp
  4028e9:	c3                   	retq   

00000000004028ea <_ZNSt3mapISt4pairIicEiSt4lessIS1_ESaIS0_IKS1_iEEED1Ev>:
  4028ea:	55                   	push   %rbp
  4028eb:	48 89 e5             	mov    %rsp,%rbp
  4028ee:	48 83 ec 10          	sub    $0x10,%rsp
  4028f2:	48 89 7d f8          	mov    %rdi,-0x8(%rbp)
  4028f6:	48 8b 45 f8          	mov    -0x8(%rbp),%rax
  4028fa:	48 89 c7             	mov    %rax,%rdi
  4028fd:	e8 00 f0 ff ff       	callq  401902 <_ZNSt8_Rb_treeISt4pairIicES0_IKS1_iESt10_Select1stIS3_ESt4lessIS1_ESaIS3_EED1Ev>
  402902:	c9                   	leaveq 
  402903:	c3                   	retq   
  402904:	66 2e 0f 1f 84 00 00 	nopw   %cs:0x0(%rax,%rax,1)
  40290b:	00 00 00 
  40290e:	66 90                	xchg   %ax,%ax

0000000000402910 <__libc_csu_init>:
  402910:	41 57                	push   %r15
  402912:	41 89 ff             	mov    %edi,%r15d
  402915:	41 56                	push   %r14
  402917:	49 89 f6             	mov    %rsi,%r14
  40291a:	41 55                	push   %r13
  40291c:	49 89 d5             	mov    %rdx,%r13
  40291f:	41 54                	push   %r12
  402921:	4c 8d 25 c0 14 20 00 	lea    0x2014c0(%rip),%r12        # 603de8 <__frame_dummy_init_array_entry>
  402928:	55                   	push   %rbp
  402929:	48 8d 2d c8 14 20 00 	lea    0x2014c8(%rip),%rbp        # 603df8 <__init_array_end>
  402930:	53                   	push   %rbx
  402931:	4c 29 e5             	sub    %r12,%rbp
  402934:	31 db                	xor    %ebx,%ebx
  402936:	48 c1 fd 03          	sar    $0x3,%rbp
  40293a:	48 83 ec 08          	sub    $0x8,%rsp
  40293e:	e8 1d e4 ff ff       	callq  400d60 <_init>
  402943:	48 85 ed             	test   %rbp,%rbp
  402946:	74 1e                	je     402966 <__libc_csu_init+0x56>
  402948:	0f 1f 84 00 00 00 00 	nopl   0x0(%rax,%rax,1)
  40294f:	00 
  402950:	4c 89 ea             	mov    %r13,%rdx
  402953:	4c 89 f6             	mov    %r14,%rsi
  402956:	44 89 ff             	mov    %r15d,%edi
  402959:	41 ff 14 dc          	callq  *(%r12,%rbx,8)
  40295d:	48 83 c3 01          	add    $0x1,%rbx
  402961:	48 39 eb             	cmp    %rbp,%rbx
  402964:	75 ea                	jne    402950 <__libc_csu_init+0x40>
  402966:	48 83 c4 08          	add    $0x8,%rsp
  40296a:	5b                   	pop    %rbx
  40296b:	5d                   	pop    %rbp
  40296c:	41 5c                	pop    %r12
  40296e:	41 5d                	pop    %r13
  402970:	41 5e                	pop    %r14
  402972:	41 5f                	pop    %r15
  402974:	c3                   	retq   
  402975:	66 66 2e 0f 1f 84 00 	data32 nopw %cs:0x0(%rax,%rax,1)
  40297c:	00 00 00 00 

0000000000402980 <__libc_csu_fini>:
  402980:	f3 c3                	repz retq 

Disassembly of section .fini:

0000000000402984 <_fini>:
  402984:	48 83 ec 08          	sub    $0x8,%rsp
  402988:	48 83 c4 08          	add    $0x8,%rsp
  40298c:	c3                   	retq   
